(dp1
S'output'
p2
S"<type 'exceptions.AttributeError'> 'NoneType' object has no attribute 'keys'"
p3
sS'layer'
p4
S'/home/vedant/Desktop/web2py/applications/garden_2_may/controllers/order.py'
p5
sS'code'
p6
S"# -*- coding: utf-8 -*-\nif not session.gardenvars:\n    session.gardenvars={}\n\nif resauth.user:\n    try :\n        resauth.user.name\n        session.flash='Please logout of \\'Restaurant\\' to continue'\n        redirect(URL('restaurant','index'))\n    except AttributeError:\n        pass\n\ndef index():\n    redirect(URL('homepage'))\n\ndef homepage():\n    searchform=SQLFORM.factory(Field('name','reference city',requires=IS_IN_DB(db,db.city,label='%(name)s',error_message='Please select your city')),submit_button='Go!!!',labels=dict(name='Select your city'))\n    if searchform.process().accepted:\n        session.gardenvars['searchcity']=searchform.vars.name\n        redirect(URL('searchfood'))\n    elif searchform.errors:\n        response.flash='Select your city'\n    return dict(searchform=searchform)\n\ndef searchfood():\n    if 'searchcity' not in session.gardenvariables.keys():\n        redirect(URL('homepage'))\n    cityid=session.gardenvars['searchcity']\n    del session.gardenvars['searchcity']\n    rows=db(db.resauth_user.id==cityid).select(db.resauth_user.ALL)\n    return dict()\n\ndef user():\n    form=userauth()\n    return dict(form=form)\n\nresponse._vars=response._caller(searchfood)\n"
p7
sS'snapshot'
p8
(dp9
sS'traceback'
p10
S'Traceback (most recent call last):\n  File "/home/vedant/Desktop/web2py/gluon/restricted.py", line 224, in restricted\n    exec ccode in environment\n  File "/home/vedant/Desktop/web2py/applications/garden_2_may/controllers/order.py", line 37, in <module>\n  File "/home/vedant/Desktop/web2py/gluon/globals.py", line 393, in <lambda>\n    self._caller = lambda f: f()\n  File "/home/vedant/Desktop/web2py/applications/garden_2_may/controllers/order.py", line 26, in searchfood\n    if \'searchcity\' not in session.gardenvariables.keys():\nAttributeError: \'NoneType\' object has no attribute \'keys\'\n'
p11
s.