(dp1
S'output'
p2
S'<class \'sqlite3.OperationalError\'> near "order": syntax error'
p3
sS'layer'
p4
S'/home/vedant/Desktop/web2py/applications/garden_2_may/models/restaurant.py'
p5
sS'code'
p6
S'# -*- coding: utf-8 -*-\nresauth=Auth(db,controller=\'restaurant\')\nresset=resauth.settings\nresset.table_user_name=\'resauth_user\'\nresset.table_group_name=\'resauth_group\'\nresset.table_membership_name=\'resauth_membership\'\nresset.table_permission_name=\'resauth_permission\'\nresset.table_event_name=\'resauth_event\'\nresset.table_cas_name=\'resauth_cas\'\ndb.define_table(\n    resauth.settings.table_user_name,\n    Field(\'name\',length=128,default=\'\',requires=IS_NOT_EMPTY(error_message=resauth.messages.is_empty)),\n    Field(\'email\',length=128,default=\'\',unique=True),\n    Field(\'contact_number_1\',length=128,default=\'\',requires=IS_MATCH(\'^[0-9]{8,16}$\',error_message=\'Must be a valid phone number\')),\n    Field(\'contact_number_2\',length=128,default=\'\',requires=IS_EMPTY_OR(IS_MATCH(\'^[0-9]{8,16}$\',error_message=\'Must be either empty or a valid phone number\'))),\n    Field(\'city\',db.city),\n    Field(\'password\',\'password\',length=512,readable=False,label=\'Password\'),\n    Field(\'registration_key\',length=512,writable=False,readable=False,default=\'\'),\n    Field(\'reset_password_key\',length=512,writable=False,readable=False,default=\'\'),\n    Field(\'registration_id\',length=512,writable=False,readable=False,default=\'\'),\n    format=\'%(name)s\')\n\nruser=db[resauth.settings.table_user_name]\nruser.password.requires=[IS_STRONG(min=8,special=0.0,upper=1,number=1,lower=1),CRYPT()]\nruser.email.requires=[IS_EMAIL(error_message=resauth.messages.invalid_email),IS_NOT_IN_DB(db,ruser.email,error_message="E-mail address already in use")]\nresauth.define_tables(username=False)\n\ndb.define_table(\n    \'dish\',\n    Field(\'name\',length=128,requires=IS_NOT_EMPTY(error_message=\'Name cannot be empty\')),\n    Field(\'price\',length=128,requires=IS_MATCH(\'^[[:digit:]]*\\.[[:digit:]]$\',error_message=\'Must be a valid price\')),\n    Field(\'description\',length=256),\n    Field(\'Image\',\'upload\',requires=IS_EMPTY_OR(IS_IMAGE(error_message=\'Uploaded file must be an image\')),autodelete=True),\n    Field(\'provider\',\'reference resauth_user\',writable=False,readable=False,default=resauth.user_id))\n\ndb.define_table(\'order\',\n                Field(\'item_id\',\'reference dish\',readable=False,writable=False),\n                Field(\'buyer\',\'reference auth_user\',readable=False,writable=False),\n                Field(\'quantity\',writable=False,requires=IS_INT_IN_RANGE(1,20)),\n                Field(\'time\',\'datetime\',default=request.now))\n'
p7
sS'snapshot'
p8
(dp9
S'exception'
p10
(dp11
S'__module__'
p12
S"'sqlite3'"
p13
sS'__getslice__'
p14
S"<method-wrapper '__getslice__' of OperationalError object>"
p15
sS'__str__'
p16
S"<method-wrapper '__str__' of OperationalError object>"
p17
sS'__reduce__'
p18
S'<built-in method __reduce__ of OperationalError object>'
p19
sS'__dict__'
p20
S'{}'
p21
sS'__sizeof__'
p22
S'<built-in method __sizeof__ of OperationalError object>'
p23
sS'__weakref__'
p24
S'None'
p25
sS'__init__'
p26
S"<method-wrapper '__init__' of OperationalError object>"
p27
sS'__setattr__'
p28
S"<method-wrapper '__setattr__' of OperationalError object>"
p29
sS'__reduce_ex__'
p30
S'<built-in method __reduce_ex__ of OperationalError object>'
p31
sS'__new__'
p32
S'<built-in method __new__ of type object>'
p33
sS'__format__'
p34
S'<built-in method __format__ of OperationalError object>'
p35
sS'__class__'
p36
S"<class 'sqlite3.OperationalError'>"
p37
sS'__doc__'
p38
S'None'
p39
sS'__getitem__'
p40
S"<method-wrapper '__getitem__' of OperationalError object>"
p41
sS'__setstate__'
p42
S'<built-in method __setstate__ of OperationalError object>'
p43
sS'__getattribute__'
p44
S"<method-wrapper '__getattribute__' of OperationalError object>"
p45
sS'args'
p46
S'(\'near "order": syntax error\',)'
p47
sS'__subclasshook__'
p48
S'<built-in method __subclasshook__ of type object>'
p49
sS'__unicode__'
p50
S'<built-in method __unicode__ of OperationalError object>'
p51
sS'__delattr__'
p52
S"<method-wrapper '__delattr__' of OperationalError object>"
p53
sS'__repr__'
p54
S"<method-wrapper '__repr__' of OperationalError object>"
p55
sS'__hash__'
p56
S"<method-wrapper '__hash__' of OperationalError object>"
p57
ssS'evalue'
p58
S'near "order": syntax error'
p59
sS'request'
p60
cgluon.html
XML_unpickle
p61
(S's-a\x00\x00<div><table><tr><td style="font-weight:bold;vertical-align:top;">ajax</td><td style="vertical-align:top;">:</td><td><div>True</div></td></tr><tr><td style="font-weight:bold;vertical-align:top;">application</td><td style="vertical-align:top;">:</td><td><div>garden_2_may</div></td></tr><tr><td style="font-weight:bold;vertical-align:top;">args</td><td style="vertical-align:top;">:</td><td><div><table></table></div></td></tr><tr><td style="font-weight:bold;vertical-align:top;">cid</td><td style="vertical-align:top;">:</td><td><div>c323732205621</div></td></tr><tr><td style="font-weight:bold;vertical-align:top;">client</td><td style="vertical-align:top;">:</td><td><div>127.0.0.1</div></td></tr><tr><td style="font-weight:bold;vertical-align:top;">controller</td><td style="vertical-align:top;">:</td><td><div>appadmin</div></td></tr><tr><td style="font-weight:bold;vertical-align:top;">cookies</td><td style="vertical-align:top;">:</td><td><div><table><tr><td style="font-weight:bold;vertical-align:top;">session_id_admin</td><td style="vertical-align:top;">:</td><td><div>127.0.0.1-8abde7e5-7126-4439-a4d0-240ef5aefb31<table><tr><td style="font-weight:bold;vertical-align:top;">comment</td><td style="vertical-align:top;">:</td><td><div></div></td></tr><tr><td style="font-weight:bold;vertical-align:top;">domain</td><td style="vertical-align:top;">:</td><td><div></div></td></tr><tr><td style="font-weight:bold;vertical-align:top;">expires</td><td style="vertical-align:top;">:</td><td><div></div></td></tr><tr><td style="font-weight:bold;vertical-align:top;">httponly</td><td style="vertical-align:top;">:</td><td><div></div></td></tr><tr><td style="font-weight:bold;vertical-align:top;">max-age</td><td style="vertical-align:top;">:</td><td><div></div></td></tr><tr><td style="font-weight:bold;vertical-align:top;">path</td><td style="vertical-align:top;">:</td><td><div></div></td></tr><tr><td style="font-weight:bold;vertical-align:top;">secure</td><td style="vertical-align:top;">:</td><td><div></div></td></tr><tr><td style="font-weight:bold;vertical-align:top;">version</td><td style="vertical-align:top;">:</td><td><div></div></td></tr></table></div></td></tr><tr><td style="font-weight:bold;vertical-align:top;">session_id_garden_2_may</td><td style="vertical-align:top;">:</td><td><div>127.0.0.1-6aed69a5-262a-45af-bba2-cd86a426e079<table><tr><td style="font-weight:bold;vertical-align:top;">comment</td><td style="vertical-align:top;">:</td><td><div></div></td></tr><tr><td style="font-weight:bold;vertical-align:top;">domain</td><td style="vertical-align:top;">:</td><td><div></div></td></tr><tr><td style="font-weight:bold;vertical-align:top;">expires</td><td style="vertical-align:top;">:</td><td><div></div></td></tr><tr><td style="font-weight:bold;vertical-align:top;">httponly</td><td style="vertical-align:top;">:</td><td><div></div></td></tr><tr><td style="font-weight:bold;vertical-align:top;">max-age</td><td style="vertical-align:top;">:</td><td><div></div></td></tr><tr><td style="font-weight:bold;vertical-align:top;">path</td><td style="vertical-align:top;">:</td><td><div></div></td></tr><tr><td style="font-weight:bold;vertical-align:top;">secure</td><td style="vertical-align:top;">:</td><td><div></div></td></tr><tr><td style="font-weight:bold;vertical-align:top;">version</td><td style="vertical-align:top;">:</td><td><div></div></td></tr></table></div></td></tr><tr><td style="font-weight:bold;vertical-align:top;">session_id_welcome</td><td style="vertical-align:top;">:</td><td><div>127.0.0.1-a774d8f3-34a3-4057-9777-2421a45de0d6<table><tr><td style="font-weight:bold;vertical-align:top;">comment</td><td style="vertical-align:top;">:</td><td><div></div></td></tr><tr><td style="font-weight:bold;vertical-align:top;">domain</td><td style="vertical-align:top;">:</td><td><div></div></td></tr><tr><td style="font-weight:bold;vertical-align:top;">expires</td><td style="vertical-align:top;">:</td><td><div></div></td></tr><tr><td style="font-weight:bold;vertical-align:top;">httponly</td><td style="vertical-align:top;">:</td><td><div></div></td></tr><tr><td style="font-weight:bold;vertical-align:top;">max-age</td><td style="vertical-align:top;">:</td><td><div></div></td></tr><tr><td style="font-weight:bold;vertical-align:top;">path</td><td style="vertical-align:top;">:</td><td><div></div></td></tr><tr><td style="font-weight:bold;vertical-align:top;">secure</td><td style="vertical-align:top;">:</td><td><div></div></td></tr><tr><td style="font-weight:bold;vertical-align:top;">version</td><td style="vertical-align:top;">:</td><td><div></div></td></tr></table></div></td></tr></table></div></td></tr><tr><td style="font-weight:bold;vertical-align:top;">env</td><td style="vertical-align:top;">:</td><td><div><table><tr><td style="font-weight:bold;vertical-align:top;">HTTP_ACCEPT</td><td style="vertical-align:top;">:</td><td><div>*/*</div></td></tr><tr><td style="font-weight:bold;vertical-align:top;">HTTP_ACCEPT_ENCODING</td><td style="vertical-align:top;">:</td><td><div>gzip, deflate</div></td></tr><tr><td style="font-weight:bold;vertical-align:top;">HTTP_ACCEPT_LANGUAGE</td><td style="vertical-align:top;">:</td><td><div>en-US,en;q=0.5</div></td></tr><tr><td style="font-weight:bold;vertical-align:top;">HTTP_CONNECTION</td><td style="vertical-align:top;">:</td><td><div>keep-alive</div></td></tr><tr><td style="font-weight:bold;vertical-align:top;">HTTP_COOKIE</td><td style="vertical-align:top;">:</td><td><div>session_id_welcome=127.0.0.1-a774d8f3-34a3-4057-9777-2421a45de0d6; session_id_garden_2_may=127.0.0.1-6aed69a5-262a-45af-bba2-cd86a426e079; session_id_admin=127.0.0.1-8abde7e5-7126-4439-a4d0-240ef5aefb31</div></td></tr><tr><td style="font-weight:bold;vertical-align:top;">HTTP_HOST</td><td style="vertical-align:top;">:</td><td><div>127.0.0.1:8000</div></td></tr><tr><td style="font-weight:bold;vertical-align:top;">HTTP_REFERER</td><td style="vertical-align:top;">:</td><td><div>http://127.0.0.1:8000/admin/default/edit/garden_2_may/views/restaurant/manage_orders.html?id=views__restaurant__manage_orders__html</div></td></tr><tr><td style="font-weight:bold;vertical-align:top;">HTTP_USER_AGENT</td><td style="vertical-align:top;">:</td><td><div>Mozilla/5.0 (X11; Ubuntu; Linux x86_64; rv:37.0) Gecko/20100101 Firefox/37.0</div></td></tr><tr><td style="font-weight:bold;vertical-align:top;">HTTP_WEB2PY_COMPONENT_ELEMENT</td><td style="vertical-align:top;">:</td><td><div>c323732205621</div></td></tr><tr><td style="font-weight:bold;vertical-align:top;">HTTP_WEB2PY_COMPONENT_LOCATION</td><td style="vertical-align:top;">:</td><td><div>http://127.0.0.1:8000/admin/default/edit/garden_2_may/views/restaurant/manage_orders.html?id=views__restaurant__manage_orders__html</div></td></tr><tr><td style="font-weight:bold;vertical-align:top;">HTTP_X_REQUESTED_WITH</td><td style="vertical-align:top;">:</td><td><div>XMLHttpRequest</div></td></tr><tr><td style="font-weight:bold;vertical-align:top;">PATH_INFO</td><td style="vertical-align:top;">:</td><td><div>/garden_2_may/appadmin/hooks</div></td></tr><tr><td style="font-weight:bold;vertical-align:top;">QUERY_STRING</td><td style="vertical-align:top;">:</td><td><div></div></td></tr><tr><td style="font-weight:bold;vertical-align:top;">REMOTE_ADDR</td><td style="vertical-align:top;">:</td><td><div>127.0.0.1</div></td></tr><tr><td style="font-weight:bold;vertical-align:top;">REMOTE_PORT</td><td style="vertical-align:top;">:</td><td><div>34697</div></td></tr><tr><td style="font-weight:bold;vertical-align:top;">REQUEST_METHOD</td><td style="vertical-align:top;">:</td><td><div>GET</div></td></tr><tr><td style="font-weight:bold;vertical-align:top;">SCRIPT_NAME</td><td style="vertical-align:top;">:</td><td><div></div></td></tr><tr><td style="font-weight:bold;vertical-align:top;">SERVER_NAME</td><td style="vertical-align:top;">:</td><td><div>Gopi-Lenovo</div></td></tr><tr><td style="font-weight:bold;vertical-align:top;">SERVER_PORT</td><td style="vertical-align:top;">:</td><td><div>8000</div></td></tr><tr><td style="font-weight:bold;vertical-align:top;">SERVER_PROTOCOL</td><td style="vertical-align:top;">:</td><td><div>HTTP/1.1</div></td></tr><tr><td style="font-weight:bold;vertical-align:top;">SERVER_SOFTWARE</td><td style="vertical-align:top;">:</td><td><div>Rocket 1.2.6</div></td></tr><tr><td style="font-weight:bold;vertical-align:top;">app_folders</td><td style="vertical-align:top;">:</td><td><div>set([&#x27;/home/vedant/Desktop/web2py/applications/RoghuKart/&#x27;, &#x27;/home/vedant/Desktop/web2py/applications/examples/&#x27;, &#x27;/home/vedant/Desktop/web2py/applications/admin/&#x27;, &#x27;/home/vedant/Desktop/web2py/applications/welcome/&#x27;, &#x27;/home/vedant/Desktop/web2py/applications/garden_2_may/&#x27;])</div></td></tr><tr><td style="font-weight:bold;vertical-align:top;">applications_parent</td><td style="vertical-align:top;">:</td><td><div>/home/vedant/Desktop/web2py</div></td></tr><tr><td style="font-weight:bold;vertical-align:top;">cmd_args</td><td style="vertical-align:top;">:</td><td><div><table></table></div></td></tr><tr><td style="font-weight:bold;vertical-align:top;">cmd_options</td><td style="vertical-align:top;">:</td><td><div>&lt;Values at 0x7fb300747518: {&#x27;verbose&#x27;: False, &#x27;ip&#x27;: &#x27;127.0.0.1&#x27;, &#x27;debuglevel&#x27;: 30, &#x27;with_scheduler&#x27;: False, &#x27;ips&#x27;: [&#x27;127.0.1.1&#x27;], &#x27;shutdown_timeout&#x27;: 5, &#x27;taskbar&#x27;: False, &#x27;with_coverage&#x27;: False, &#x27;scheduler_groups&#x27;: None, &#x27;port&#x27;: 8000, &#x27;maxthreads&#x27;: None, &#x27;softcron&#x27;: False, &#x27;server_name&#x27;: &#x27;Gopi-Lenovo&#x27;, &#x27;bpython&#x27;: False, &#x27;nogui&#x27;: True, &#x27;pid_filename&#x27;: &#x27;httpserver.pid&#x27;, &#x27;extcron&#x27;: False, &#x27;runcron&#x27;: False, &#x27;run_system_tests&#x27;: False, &#x27;test&#x27;: None, &#x27;folder&#x27;: &#x27;/home/vedant/Desktop/web2py&#x27;, &#x27;config&#x27;: &#x27;&#x27;, &#x27;minthreads&#x27;: None, &#x27;shell&#x27;: None, &#x27;run&#x27;: &#x27;&#x27;, &#x27;log_filename&#x27;: &#x27;httpserver.log&#x27;, &#x27;profiler_dir&#x27;: None, &#x27;args&#x27;: [&#x27;&#x27;], &#x27;socket_timeout&#x27;: 5, &#x27;ssl_ca_certificate&#x27;: None, &#x27;scheduler&#x27;: None, &#x27;interfaces&#x27;: None, &#x27;ssl_private_key&#x27;: &#x27;&#x27;, &#x27;gae&#x27;: None, &#x27;password&#x27;: &#x27; &#x27;, &#x27;request_queue_size&#x27;: 5, &#x27;ssl_certificate&#x27;: &#x27;&#x27;, &#x27;cronjob&#x27;: False, &#x27;numthreads&#x27;: None, &#x27;quiet&#x27;: False, &#x27;import_models&#x27;: False, &#x27;timeout&#x27;: 10, &#x27;plain&#x27;: False, &#x27;nobanner&#x27;: False}&gt;</div></td></tr><tr><td style="font-weight:bold;vertical-align:top;">db_sessions</td><td style="vertical-align:top;">:</td><td><div>set([])</div></td></tr><tr><td style="font-weight:bold;vertical-align:top;">debugging</td><td style="vertical-align:top;">:</td><td><div>True</div></td></tr><tr><td style="font-weight:bold;vertical-align:top;">gluon_parent</td><td style="vertical-align:top;">:</td><td><div>/home/vedant/Desktop/web2py</div></td></tr><tr><td style="font-weight:bold;vertical-align:top;">http_accept</td><td style="vertical-align:top;">:</td><td><div>*/*</div></td></tr><tr><td style="font-weight:bold;vertical-align:top;">http_accept_encoding</td><td style="vertical-align:top;">:</td><td><div>gzip, deflate</div></td></tr><tr><td style="font-weight:bold;vertical-align:top;">http_accept_language</td><td style="vertical-align:top;">:</td><td><div>en-US,en;q=0.5</div></td></tr><tr><td style="font-weight:bold;vertical-align:top;">http_connection</td><td style="vertical-align:top;">:</td><td><div>keep-alive</div></td></tr><tr><td style="font-weight:bold;vertical-align:top;">http_cookie</td><td style="vertical-align:top;">:</td><td><div>session_id_welcome=127.0.0.1-a774d8f3-34a3-4057-9777-2421a45de0d6; session_id_garden_2_may=127.0.0.1-6aed69a5-262a-45af-bba2-cd86a426e079; session_id_admin=127.0.0.1-8abde7e5-7126-4439-a4d0-240ef5aefb31</div></td></tr><tr><td style="font-weight:bold;vertical-align:top;">http_host</td><td style="vertical-align:top;">:</td><td><div>127.0.0.1:8000</div></td></tr><tr><td style="font-weight:bold;vertical-align:top;">http_referer</td><td style="vertical-align:top;">:</td><td><div>http://127.0.0.1:8000/admin/default/edit/garden_2_may/views/restaurant/manage_orders.html?id=views__restaurant__manage_orders__html</div></td></tr><tr><td style="font-weight:bold;vertical-align:top;">http_user_agent</td><td style="vertical-align:top;">:</td><td><div>Mozilla/5.0 (X11; Ubuntu; Linux x86_64; rv:37.0) Gecko/20100101 Firefox/37.0</div></td></tr><tr><td style="font-weight:bold;vertical-align:top;">http_web2py_component_element</td><td style="vertical-align:top;">:</td><td><div>c323732205621</div></td></tr><tr><td style="font-weight:bold;vertical-align:top;">http_web2py_component_location</td><td style="vertical-align:top;">:</td><td><div>http://127.0.0.1:8000/admin/default/edit/garden_2_may/views/restaurant/manage_orders.html?id=views__restaurant__manage_orders__html</div></td></tr><tr><td style="font-weight:bold;vertical-align:top;">http_x_requested_with</td><td style="vertical-align:top;">:</td><td><div>XMLHttpRequest</div></td></tr><tr><td style="font-weight:bold;vertical-align:top;">is_jython</td><td style="vertical-align:top;">:</td><td><div>False</div></td></tr><tr><td style="font-weight:bold;vertical-align:top;">is_pypy</td><td style="vertical-align:top;">:</td><td><div>False</div></td></tr><tr><td style="font-weight:bold;vertical-align:top;">is_source</td><td style="vertical-align:top;">:</td><td><div>True</div></td></tr><tr><td style="font-weight:bold;vertical-align:top;">local_hosts</td><td style="vertical-align:top;">:</td><td><div><table><tr><td><div>Gopi-Lenovo</div></td></tr><tr><td><div>::1</div></td></tr><tr><td><div>127.0.1.1</div></td></tr><tr><td><div>::ffff:127.0.0.1</div></td></tr><tr><td><div>127.0.0.1</div></td></tr></table></div></td></tr><tr><td style="font-weight:bold;vertical-align:top;">path_info</td><td style="vertical-align:top;">:</td><td><div>/garden_2_may/appadmin/hooks</div></td></tr><tr><td style="font-weight:bold;vertical-align:top;">query_string</td><td style="vertical-align:top;">:</td><td><div></div></td></tr><tr><td style="font-weight:bold;vertical-align:top;">remote_addr</td><td style="vertical-align:top;">:</td><td><div>127.0.0.1</div></td></tr><tr><td style="font-weight:bold;vertical-align:top;">remote_port</td><td style="vertical-align:top;">:</td><td><div>34697</div></td></tr><tr><td style="font-weight:bold;vertical-align:top;">request_method</td><td style="vertical-align:top;">:</td><td><div>GET</div></td></tr><tr><td style="font-weight:bold;vertical-align:top;">request_uri</td><td style="vertical-align:top;">:</td><td><div>/garden_2_may/appadmin/hooks</div></td></tr><tr><td style="font-weight:bold;vertical-align:top;">script_name</td><td style="vertical-align:top;">:</td><td><div></div></td></tr><tr><td style="font-weight:bold;vertical-align:top;">server_name</td><td style="vertical-align:top;">:</td><td><div>Gopi-Lenovo</div></td></tr><tr><td style="font-weight:bold;vertical-align:top;">server_port</td><td style="vertical-align:top;">:</td><td><div>8000</div></td></tr><tr><td style="font-weight:bold;vertical-align:top;">server_protocol</td><td style="vertical-align:top;">:</td><td><div>HTTP/1.1</div></td></tr><tr><td style="font-weight:bold;vertical-align:top;">server_software</td><td style="vertical-align:top;">:</td><td><div>Rocket 1.2.6</div></td></tr><tr><td style="font-weight:bold;vertical-align:top;">web2py_path</td><td style="vertical-align:top;">:</td><td><div>/home/vedant/Desktop/web2py</div></td></tr><tr><td style="font-weight:bold;vertical-align:top;">web2py_version</td><td style="vertical-align:top;">:</td><td><div>2.9.12-stable+timestamp.2015.01.17.06.11.03</div></td></tr><tr><td style="font-weight:bold;vertical-align:top;">wsgi.errors</td><td style="vertical-align:top;">:</td><td><div>&lt;open file &#x27;&lt;stderr&gt;&#x27;, mode &#x27;w&#x27; at 0x7fb3046731e0&gt;</div></td></tr><tr><td style="font-weight:bold;vertical-align:top;">wsgi.file_wrapper</td><td style="vertical-align:top;">:</td><td><div>&lt;class wsgiref.util.FileWrapper at 0x7fb300766120&gt;</div></td></tr><tr><td style="font-weight:bold;vertical-align:top;">wsgi.input</td><td style="vertical-align:top;">:</td><td><div>&lt;socket._fileobject object at 0x7fb2dd9dcc50&gt;</div></td></tr><tr><td style="font-weight:bold;vertical-align:top;">wsgi.multiprocess</td><td style="vertical-align:top;">:</td><td><div>False</div></td></tr><tr><td style="font-weight:bold;vertical-align:top;">wsgi.multithread</td><td style="vertical-align:top;">:</td><td><div>True</div></td></tr><tr><td style="font-weight:bold;vertical-align:top;">wsgi.run_once</td><td style="vertical-align:top;">:</td><td><div>False</div></td></tr><tr><td style="font-weight:bold;vertical-align:top;">wsgi.url_scheme</td><td style="vertical-align:top;">:</td><td><div>http</div></td></tr><tr><td style="font-weight:bold;vertical-align:top;">wsgi.version</td><td style="vertical-align:top;">:</td><td><div><table><tr><td><div>1</div></td></tr><tr><td><div>0</div></td></tr></table></div></td></tr><tr><td style="font-weight:bold;vertical-align:top;">wsgi_errors</td><td style="vertical-align:top;">:</td><td><div>&lt;open file &#x27;&lt;stderr&gt;&#x27;, mode &#x27;w&#x27; at 0x7fb3046731e0&gt;</div></td></tr><tr><td style="font-weight:bold;vertical-align:top;">wsgi_file_wrapper</td><td style="vertical-align:top;">:</td><td><div>&lt;class wsgiref.util.FileWrapper at 0x7fb300766120&gt;</div></td></tr><tr><td style="font-weight:bold;vertical-align:top;">wsgi_input</td><td style="vertical-align:top;">:</td><td><div>&lt;socket._fileobject object at 0x7fb2dd9dcc50&gt;</div></td></tr><tr><td style="font-weight:bold;vertical-align:top;">wsgi_multiprocess</td><td style="vertical-align:top;">:</td><td><div>False</div></td></tr><tr><td style="font-weight:bold;vertical-align:top;">wsgi_multithread</td><td style="vertical-align:top;">:</td><td><div>True</div></td></tr><tr><td style="font-weight:bold;vertical-align:top;">wsgi_run_once</td><td style="vertical-align:top;">:</td><td><div>False</div></td></tr><tr><td style="font-weight:bold;vertical-align:top;">wsgi_url_scheme</td><td style="vertical-align:top;">:</td><td><div>http</div></td></tr><tr><td style="font-weight:bold;vertical-align:top;">wsgi_version</td><td style="vertical-align:top;">:</td><td><div><table><tr><td><div>1</div></td></tr><tr><td><div>0</div></td></tr></table></div></td></tr></table></div></td></tr><tr><td style="font-weight:bold;vertical-align:top;">extension</td><td style="vertical-align:top;">:</td><td><div>html</div></td></tr><tr><td style="font-weight:bold;vertical-align:top;">folder</td><td style="vertical-align:top;">:</td><td><div>/home/vedant/Desktop/web2py/applications/garden_2_may/</div></td></tr><tr><td style="font-weight:bold;vertical-align:top;">function</td><td style="vertical-align:top;">:</td><td><div>hooks</div></td></tr><tr><td style="font-weight:bold;vertical-align:top;">global_settings</td><td style="vertical-align:top;">:</td><td><div><table><tr><td style="font-weight:bold;vertical-align:top;">app_folders</td><td style="vertical-align:top;">:</td><td><div>set([&#x27;/home/vedant/Desktop/web2py/applications/RoghuKart/&#x27;, &#x27;/home/vedant/Desktop/web2py/applications/examples/&#x27;, &#x27;/home/vedant/Desktop/web2py/applications/admin/&#x27;, &#x27;/home/vedant/Desktop/web2py/applications/welcome/&#x27;, &#x27;/home/vedant/Desktop/web2py/applications/garden_2_may/&#x27;])</div></td></tr><tr><td style="font-weight:bold;vertical-align:top;">applications_parent</td><td style="vertical-align:top;">:</td><td><div>/home/vedant/Desktop/web2py</div></td></tr><tr><td style="font-weight:bold;vertical-align:top;">cmd_args</td><td style="vertical-align:top;">:</td><td><div><table></table></div></td></tr><tr><td style="font-weight:bold;vertical-align:top;">cmd_options</td><td style="vertical-align:top;">:</td><td><div>&lt;Values at 0x7fb300747518: {&#x27;verbose&#x27;: False, &#x27;ip&#x27;: &#x27;127.0.0.1&#x27;, &#x27;debuglevel&#x27;: 30, &#x27;with_scheduler&#x27;: False, &#x27;ips&#x27;: [&#x27;127.0.1.1&#x27;], &#x27;shutdown_timeout&#x27;: 5, &#x27;taskbar&#x27;: False, &#x27;with_coverage&#x27;: False, &#x27;scheduler_groups&#x27;: None, &#x27;port&#x27;: 8000, &#x27;maxthreads&#x27;: None, &#x27;softcron&#x27;: False, &#x27;server_name&#x27;: &#x27;Gopi-Lenovo&#x27;, &#x27;bpython&#x27;: False, &#x27;nogui&#x27;: True, &#x27;pid_filename&#x27;: &#x27;httpserver.pid&#x27;, &#x27;extcron&#x27;: False, &#x27;runcron&#x27;: False, &#x27;run_system_tests&#x27;: False, &#x27;test&#x27;: None, &#x27;folder&#x27;: &#x27;/home/vedant/Desktop/web2py&#x27;, &#x27;config&#x27;: &#x27;&#x27;, &#x27;minthreads&#x27;: None, &#x27;shell&#x27;: None, &#x27;run&#x27;: &#x27;&#x27;, &#x27;log_filename&#x27;: &#x27;httpserver.log&#x27;, &#x27;profiler_dir&#x27;: None, &#x27;args&#x27;: [&#x27;&#x27;], &#x27;socket_timeout&#x27;: 5, &#x27;ssl_ca_certificate&#x27;: None, &#x27;scheduler&#x27;: None, &#x27;interfaces&#x27;: None, &#x27;ssl_private_key&#x27;: &#x27;&#x27;, &#x27;gae&#x27;: None, &#x27;password&#x27;: &#x27; &#x27;, &#x27;request_queue_size&#x27;: 5, &#x27;ssl_certificate&#x27;: &#x27;&#x27;, &#x27;cronjob&#x27;: False, &#x27;numthreads&#x27;: None, &#x27;quiet&#x27;: False, &#x27;import_models&#x27;: False, &#x27;timeout&#x27;: 10, &#x27;plain&#x27;: False, &#x27;nobanner&#x27;: False}&gt;</div></td></tr><tr><td style="font-weight:bold;vertical-align:top;">db_sessions</td><td style="vertical-align:top;">:</td><td><div>set([])</div></td></tr><tr><td style="font-weight:bold;vertical-align:top;">debugging</td><td style="vertical-align:top;">:</td><td><div>True</div></td></tr><tr><td style="font-weight:bold;vertical-align:top;">gluon_parent</td><td style="vertical-align:top;">:</td><td><div>/home/vedant/Desktop/web2py</div></td></tr><tr><td style="font-weight:bold;vertical-align:top;">is_jython</td><td style="vertical-align:top;">:</td><td><div>False</div></td></tr><tr><td style="font-weight:bold;vertical-align:top;">is_pypy</td><td style="vertical-align:top;">:</td><td><div>False</div></td></tr><tr><td style="font-weight:bold;vertical-align:top;">is_source</td><td style="vertical-align:top;">:</td><td><div>True</div></td></tr><tr><td style="font-weight:bold;vertical-align:top;">local_hosts</td><td style="vertical-align:top;">:</td><td><div><table><tr><td><div>Gopi-Lenovo</div></td></tr><tr><td><div>::1</div></td></tr><tr><td><div>127.0.1.1</div></td></tr><tr><td><div>::ffff:127.0.0.1</div></td></tr><tr><td><div>127.0.0.1</div></td></tr></table></div></td></tr><tr><td style="font-weight:bold;vertical-align:top;">web2py_version</td><td style="vertical-align:top;">:</td><td><div>2.9.12-stable+timestamp.2015.01.17.06.11.03</div></td></tr></table></div></td></tr><tr><td style="font-weight:bold;vertical-align:top;">is_https</td><td style="vertical-align:top;">:</td><td><div>False</div></td></tr><tr><td style="font-weight:bold;vertical-align:top;">is_local</td><td style="vertical-align:top;">:</td><td><div>True</div></td></tr><tr><td style="font-weight:bold;vertical-align:top;">is_restful</td><td style="vertical-align:top;">:</td><td><div>False</div></td></tr><tr><td style="font-weight:bold;vertical-align:top;">is_sheduler</td><td style="vertical-align:top;">:</td><td><div>None</div></td></tr><tr><td style="font-weight:bold;vertical-align:top;">is_shell</td><td style="vertical-align:top;">:</td><td><div>None</div></td></tr><tr><td style="font-weight:bold;vertical-align:top;">now</td><td style="vertical-align:top;">:</td><td><div>datetime.datetime(2015, 5, 3, 3, 45, 45, 24768)</div></td></tr><tr><td style="font-weight:bold;vertical-align:top;">raw_args</td><td style="vertical-align:top;">:</td><td><div></div></td></tr><tr><td style="font-weight:bold;vertical-align:top;">raw_extension</td><td style="vertical-align:top;">:</td><td><div>None</div></td></tr><tr><td style="font-weight:bold;vertical-align:top;">url</td><td style="vertical-align:top;">:</td><td><div>/garden_2_may/appadmin/hooks</div></td></tr><tr><td style="font-weight:bold;vertical-align:top;">utcnow</td><td style="vertical-align:top;">:</td><td><div>datetime.datetime(2015, 5, 2, 22, 15, 45, 24778)</div></td></tr><tr><td style="font-weight:bold;vertical-align:top;">uuid</td><td style="vertical-align:top;">:</td><td><div>garden_2_may/127.0.0.1.2015-05-03.03-45-45.fad51431-0e9f-4ea1-83dc-908dcd0877e3</div></td></tr><tr><td style="font-weight:bold;vertical-align:top;">wsgi</td><td style="vertical-align:top;">:</td><td><div>&lt;gluon.main.LazyWSGI object at 0x7fb2dd2c8a10&gt;</div></td></tr></table></div>'
tRp62
sS'frames'
p63
(lp64
(dp65
S'file'
p66
S'/home/vedant/Desktop/web2py/gluon/restricted.py'
p67
sS'dump'
p68
(dp69
S'environment'
p70
S"{'A': <class 'gluon.html.A'>, 'ANY_OF': <class 'gluon.validators.ANY_OF'>, 'ASSIGNJS': <function ASSIGNJS>, 'Auth': <class 'gluon.tools.Auth'>, 'B': <class 'gluon.html.B'>, 'BEAUTIFY': <class 'gluon.html.BEAUTIFY'>, 'BODY': <class 'gluon.html.BODY'>, 'BR': <class 'gluon.html.BR'>, 'BUTTON': <class 'gluon.html.BUTTON'>, 'CAT': <class 'gluon.html.CAT'>, ...}"
p71
sS'ccode'
p72
S'<code object <module> at 0x7fb2dc43ae30, file "/...tions/garden_2_may/models/restaurant.py", line 2>'
p73
ssS'lnum'
p74
I224
sS'lines'
p75
(dp76
I224
S'        exec ccode in environment'
p77
sI225
S'    except HTTP:'
p78
sI226
S'        raise'
p79
sI227
S'    except RestrictedError:'
p80
sI228
S'        # do not encapsulate (obfuscate) the original RestrictedError'
p81
sI219
S'    try:'
p82
sI220
S'        if isinstance(code, types.CodeType):'
p83
sI221
S'            ccode = code'
p84
sI222
S'        else:'
p85
sI223
S'            ccode = compile2(code, layer)'
p86
ssS'call'
p87
S'(code="# -*- coding: utf-8 -*-\\nresauth=Auth(db,controll...   Field(\'time\',\'datetime\',default=request.now))\\n", environment={\'A\': <class \'gluon.html.A\'>, \'ANY_OF\': <class \'gluon.validators.ANY_OF\'>, \'ASSIGNJS\': <function ASSIGNJS>, \'Auth\': <class \'gluon.tools.Auth\'>, \'B\': <class \'gluon.html.B\'>, \'BEAUTIFY\': <class \'gluon.html.BEAUTIFY\'>, \'BODY\': <class \'gluon.html.BODY\'>, \'BR\': <class \'gluon.html.BR\'>, \'BUTTON\': <class \'gluon.html.BUTTON\'>, \'CAT\': <class \'gluon.html.CAT\'>, ...}, layer=\'/home/vedant/Desktop/web2py/applications/garden_2_may/models/restaurant.py\')'
p88
sS'func'
p89
S'restricted'
p90
sa(dp91
g66
S'/home/vedant/Desktop/web2py/applications/garden_2_may/models/restaurant.py'
p92
sg68
(dp93
S'default'
p94
S'undefined'
p95
sS'Field'
p96
S"<class 'gluon.dal.objects.Field'>"
p97
sS'request'
p98
S"<Storage {'_vars': None, 'function': 'hooks', 'c...dant/Desktop/web2py/applications/garden_2_may/'}>"
p99
sS'request.now'
p100
S'datetime.datetime(2015, 5, 3, 3, 45, 45, 24768)'
p101
ssg74
I40
sg75
(dp102
I32
S"    Field('description',length=256),"
p103
sI33
S"    Field('Image','upload',requires=IS_EMPTY_OR(IS_IMAGE(error_message='Uploaded file must be an image')),autodelete=True),"
p104
sI34
S"    Field('provider','reference resauth_user',writable=False,readable=False,default=resauth.user_id))"
p105
sI35
S''
sI36
S"db.define_table('order',"
p106
sI37
S"                Field('item_id','reference dish',readable=False,writable=False),"
p107
sI38
S"                Field('buyer','reference auth_user',readable=False,writable=False),"
p108
sI39
S"                Field('quantity',writable=False,requires=IS_INT_IN_RANGE(1,20)),"
p109
sI40
S"                Field('time','datetime',default=request.now))"
p110
sI31
S"    Field('price',length=128,requires=IS_MATCH('^[[:digit:]]*\\.[[:digit:]]$',error_message='Must be a valid price')),"
p111
ssg87
S'()'
p112
sg89
S'<module>'
p113
sa(dp114
g66
S'/home/vedant/Desktop/web2py/gluon/dal/base.py'
p115
sg68
(dp116
S'fields'
p117
S'(<gluon.dal.objects.Field object>, <gluon.dal.objects.Field object>, <gluon.dal.objects.Field object>, <gluon.dal.objects.Field object>)'
p118
sS'self'
p119
S'<DAL uri="sqlite://storage.sqlite">'
p120
sS'args'
p121
g21
sS'tablename'
p122
S"'order'"
p123
sS'table'
p124
g95
sS'self.lazy_define_table'
p125
S'<bound method DAL.lazy_define_table of <DAL uri="sqlite://storage.sqlite">>'
p126
ssg74
I787
sg75
(dp127
I782
S'                    % (tablename,invalid_args))'
p128
sI783
S'        if self._lazy_tables and not tablename in self._LAZY_TABLES:'
p129
sI784
S'            self._LAZY_TABLES[tablename] = (tablename,fields,args)'
p130
sI785
S'            table = None'
p131
sI786
S'        else:'
p132
sI787
S'            table = self.lazy_define_table(tablename,*fields,**args)'
p133
sI788
S'        if not tablename in self.tables:'
p134
sI789
S'            self.tables.append(tablename)'
p135
sI790
S'        return table'
p136
sI791
S''
ssg87
S'(self=<DAL uri="sqlite://storage.sqlite">, tablename=\'order\', *fields=(<gluon.dal.objects.Field object>, <gluon.dal.objects.Field object>, <gluon.dal.objects.Field object>, <gluon.dal.objects.Field object>), **args={})'
p137
sg89
S'define_table'
p138
sa(dp139
g66
S'/home/vedant/Desktop/web2py/gluon/dal/base.py'
p140
sg68
(dp141
S'polymodel'
p142
S'None'
p143
ssg74
I824
sg75
(dp144
I819
S'            try:'
p145
sI820
S'                GLOBAL_LOCKER.acquire()'
p146
sI821
S'                self._lastsql = self._adapter.create_table('
p147
sI822
S'                    table,migrate=migrate,'
p148
sI823
S'                    fake_migrate=fake_migrate,'
p149
sI824
S'                    polymodel=polymodel)'
p150
sI825
S'            finally:'
p151
sI826
S'                GLOBAL_LOCKER.release()'
p152
sI827
S'        else:'
p153
sI828
S'            table._dbt = None'
p154
ssg87
S'(self=<DAL uri="sqlite://storage.sqlite">, tablename=\'order\', *fields=(<gluon.dal.objects.Field object>, <gluon.dal.objects.Field object>, <gluon.dal.objects.Field object>, <gluon.dal.objects.Field object>), **args={})'
p155
sg89
S'lazy_define_table'
p156
sa(dp157
g66
S'/home/vedant/Desktop/web2py/gluon/dal/adapters/base.py'
p158
sg68
(dp159
S'query'
p160
S"'CREATE TABLE order(\\n    id INTEGER PRIMARY KEY A...DE,\\n    quantity CHAR(512),\\n    time TIMESTAMP\\n);'"
p161
sS'self'
p162
S'<gluon.dal.adapters.sqlite.SQLiteAdapter object>'
p163
sS'table'
p164
S'<Table order (id,item_id,buyer,quantity,time)>'
p165
sS'self.create_sequence_and_triggers'
p166
S'<bound method SQLiteAdapter.create_sequence_and_...<gluon.dal.adapters.sqlite.SQLiteAdapter object>>'
p167
ssg74
I459
sg75
(dp168
I454
S'            if table._dbt:'
p169
sI455
S"                self.log('timestamp: %s\\n%s\\n'"
p170
sI456
S'                         % (datetime.datetime.today().isoformat(),'
p171
sI457
S'                            query), table)'
p172
sI458
S'            if not fake_migrate:'
p173
sI459
S'                self.create_sequence_and_triggers(query,table)'
p174
sI460
S'                table._db.commit()'
p175
sI461
S'                # Postgres geom fields are added now,'
p176
sI462
S'                # after the table has been created'
p177
sI463
S'                for query in postcreation_fields:'
p178
ssg87
S'(self=<gluon.dal.adapters.sqlite.SQLiteAdapter object>, table=<Table order (id,item_id,buyer,quantity,time)>, migrate=True, fake_migrate=False, polymodel=None)'
p179
sg89
S'create_table'
p180
sa(dp181
g66
S'/home/vedant/Desktop/web2py/gluon/dal/adapters/base.py'
p182
sg68
(dp183
S'query'
p184
S"'CREATE TABLE order(\\n    id INTEGER PRIMARY KEY A...DE,\\n    quantity CHAR(512),\\n    time TIMESTAMP\\n);'"
p185
sS'self'
p186
S'<gluon.dal.adapters.sqlite.SQLiteAdapter object>'
p187
sS'self.execute'
p188
S'<bound method SQLiteAdapter.execute of <gluon.dal.adapters.sqlite.SQLiteAdapter object>>'
p189
ssg74
I1300
sg75
(dp190
I1295
S''
sI1296
S'    def constraint_name(self, table, fieldname):'
p191
sI1297
S"        return '%s_%s__constraint' % (table,fieldname)"
p192
sI1298
S''
sI1299
S'    def create_sequence_and_triggers(self, query, table, **args):'
p193
sI1300
S'        self.execute(query)'
p194
sI1301
S''
sI1302
S''
sI1303
S'    def log_execute(self, *a, **b):'
p195
sI1304
S'        if not self.connection: raise ValueError(a[0])'
p196
ssg87
S"(self=<gluon.dal.adapters.sqlite.SQLiteAdapter object>, query='CREATE TABLE order(\\n    id INTEGER PRIMARY KEY A...DE,\\n    quantity CHAR(512),\\n    time TIMESTAMP\\n);', table=<Table order (id,item_id,buyer,quantity,time)>, **args={})"
p197
sg89
S'create_sequence_and_triggers'
p198
sa(dp199
g66
S'/home/vedant/Desktop/web2py/gluon/dal/adapters/base.py'
p200
sg68
(dp201
S'a'
S"('CREATE TABLE order(\\n    id INTEGER PRIMARY KEY A...DE,\\n    quantity CHAR(512),\\n    time TIMESTAMP\\n);',)"
p202
sS'self'
p203
S'<gluon.dal.adapters.sqlite.SQLiteAdapter object>'
p204
sS'b'
g21
sS'self.log_execute'
p205
S'<bound method SQLiteAdapter.log_execute of <gluon.dal.adapters.sqlite.SQLiteAdapter object>>'
p206
ssg74
I1319
sg75
(dp207
I1314
S'        self.db._timings.append((command,time.time()-t0))'
p208
sI1315
S'        del self.db._timings[:-TIMINGSSIZE]'
p209
sI1316
S'        return ret'
p210
sI1317
S''
sI1318
S'    def execute(self, *a, **b):'
p211
sI1319
S'        return self.log_execute(*a, **b)'
p212
sI1320
S''
sI1321
S'    def represent(self, obj, fieldtype):'
p213
sI1322
S'        field_is_type = fieldtype.startswith'
p214
sI1323
S'        if isinstance(obj, CALLABLETYPES):'
p215
ssg87
S"(self=<gluon.dal.adapters.sqlite.SQLiteAdapter object>, *a=('CREATE TABLE order(\\n    id INTEGER PRIMARY KEY A...DE,\\n    quantity CHAR(512),\\n    time TIMESTAMP\\n);',), **b={})"
p216
sg89
S'execute'
p217
sa(dp218
g66
S'/home/vedant/Desktop/web2py/gluon/dal/adapters/base.py'
p219
sg68
(dp220
S'a'
S"('CREATE TABLE order(\\n    id INTEGER PRIMARY KEY A...DE,\\n    quantity CHAR(512),\\n    time TIMESTAMP\\n);',)"
p221
sS'b'
g21
sS'self'
p222
S'<gluon.dal.adapters.sqlite.SQLiteAdapter object>'
p223
sS'ret'
p224
g95
sS'self.cursor'
p225
S'<sqlite3.Cursor object>'
p226
sS'command'
p227
S"'CREATE TABLE order(\\n    id INTEGER PRIMARY KEY A...DE,\\n    quantity CHAR(512),\\n    time TIMESTAMP\\n);'"
p228
sS'self.cursor.execute'
p229
S'<built-in method execute of sqlite3.Cursor object>'
p230
ssg74
I1313
sg75
(dp231
I1312
S'        t0 = time.time()'
p232
sI1313
S'        ret = self.cursor.execute(command, *a[1:], **b)'
p233
sI1314
S'        self.db._timings.append((command,time.time()-t0))'
p234
sI1315
S'        del self.db._timings[:-TIMINGSSIZE]'
p235
sI1316
S'        return ret'
p236
sI1317
S''
sI1308
S'            command = self.filter_sql_command(command)'
p237
sI1309
S'        if self.db._debug:'
p238
sI1310
S"            LOGGER.debug('SQL: %s' % command)"
p239
sI1311
S'        self.db._lastsql = command'
p240
ssg87
S"(self=<gluon.dal.adapters.sqlite.SQLiteAdapter object>, *a=('CREATE TABLE order(\\n    id INTEGER PRIMARY KEY A...DE,\\n    quantity CHAR(512),\\n    time TIMESTAMP\\n);',), **b={})"
p241
sg89
S'log_execute'
p242
sasS'pyver'
p243
S'Python 2.7.6: /usr/bin/python (prefix: /usr)'
p244
sS'session'
p245
g61
(S'so\t\x00\x00<div><table><tr><td style="font-weight:bold;vertical-align:top;">auth</td><td style="vertical-align:top;">:</td><td><div><table><tr><td style="font-weight:bold;vertical-align:top;">expiration</td><td style="vertical-align:top;">:</td><td><div>3600</div></td></tr><tr><td style="font-weight:bold;vertical-align:top;">hmac_key</td><td style="vertical-align:top;">:</td><td><div>99a51bbc-b257-4ff0-8697-e4480a10f4e5</div></td></tr><tr><td style="font-weight:bold;vertical-align:top;">last_visit</td><td style="vertical-align:top;">:</td><td><div>datetime.datetime(2015, 5, 3, 3, 45, 45, 24768)</div></td></tr><tr><td style="font-weight:bold;vertical-align:top;">user</td><td style="vertical-align:top;">:</td><td><div><table><tr><td style="font-weight:bold;vertical-align:top;">city</td><td style="vertical-align:top;">:</td><td><div>2L</div></td></tr><tr><td style="font-weight:bold;vertical-align:top;">contact_number_1</td><td style="vertical-align:top;">:</td><td><div>1234567890</div></td></tr><tr><td style="font-weight:bold;vertical-align:top;">contact_number_2</td><td style="vertical-align:top;">:</td><td><div>None</div></td></tr><tr><td style="font-weight:bold;vertical-align:top;">email</td><td style="vertical-align:top;">:</td><td><div>abh.vii@sdf.com</div></td></tr><tr><td style="font-weight:bold;vertical-align:top;">id</td><td style="vertical-align:top;">:</td><td><div>1L</div></td></tr><tr><td style="font-weight:bold;vertical-align:top;">name</td><td style="vertical-align:top;">:</td><td><div>chaiwala</div></td></tr><tr><td style="font-weight:bold;vertical-align:top;">registration_id</td><td style="vertical-align:top;">:</td><td><div></div></td></tr><tr><td style="font-weight:bold;vertical-align:top;">registration_key</td><td style="vertical-align:top;">:</td><td><div></div></td></tr><tr><td style="font-weight:bold;vertical-align:top;">reset_password_key</td><td style="vertical-align:top;">:</td><td><div></div></td></tr></table></div></td></tr><tr><td style="font-weight:bold;vertical-align:top;">user_groups</td><td style="vertical-align:top;">:</td><td><div><table><tr><td style="font-weight:bold;vertical-align:top;">1</td><td style="vertical-align:top;">:</td><td><div>user_1</div></td></tr></table></div></td></tr></table></div></td></tr><tr><td style="font-weight:bold;vertical-align:top;">flash</td><td style="vertical-align:top;">:</td><td><div>None</div></td></tr></table></div>'
tRp246
sS'etype'
p247
S"<class 'sqlite3.OperationalError'>"
p248
sS'date'
p249
S'Sun May  3 03:45:45 2015'
p250
sS'response'
p251
g61
(S's\xb7\x18\x00\x00<div><table><tr><td style="font-weight:bold;vertical-align:top;">body</td><td style="vertical-align:top;">:</td><td><div>&lt;cStringIO.StringO object at 0x7fb30029f3b0&gt;</div></td></tr><tr><td style="font-weight:bold;vertical-align:top;">cookies</td><td style="vertical-align:top;">:</td><td><div><table><tr><td style="font-weight:bold;vertical-align:top;">session_id_garden_2_may</td><td style="vertical-align:top;">:</td><td><div>127.0.0.1-6aed69a5-262a-45af-bba2-cd86a426e079<table><tr><td style="font-weight:bold;vertical-align:top;">comment</td><td style="vertical-align:top;">:</td><td><div></div></td></tr><tr><td style="font-weight:bold;vertical-align:top;">domain</td><td style="vertical-align:top;">:</td><td><div></div></td></tr><tr><td style="font-weight:bold;vertical-align:top;">expires</td><td style="vertical-align:top;">:</td><td><div></div></td></tr><tr><td style="font-weight:bold;vertical-align:top;">httponly</td><td style="vertical-align:top;">:</td><td><div></div></td></tr><tr><td style="font-weight:bold;vertical-align:top;">max-age</td><td style="vertical-align:top;">:</td><td><div></div></td></tr><tr><td style="font-weight:bold;vertical-align:top;">path</td><td style="vertical-align:top;">:</td><td><div>/</div></td></tr><tr><td style="font-weight:bold;vertical-align:top;">secure</td><td style="vertical-align:top;">:</td><td><div></div></td></tr><tr><td style="font-weight:bold;vertical-align:top;">version</td><td style="vertical-align:top;">:</td><td><div></div></td></tr></table></div></td></tr></table></div></td></tr><tr><td style="font-weight:bold;vertical-align:top;">delimiters</td><td style="vertical-align:top;">:</td><td><div><table><tr><td><div>{{</div></td></tr><tr><td><div>}}</div></td></tr></table></div></td></tr><tr><td style="font-weight:bold;vertical-align:top;">files</td><td style="vertical-align:top;">:</td><td><div><table></table></div></td></tr><tr><td style="font-weight:bold;vertical-align:top;">flash</td><td style="vertical-align:top;">:</td><td><div></div></td></tr><tr><td style="font-weight:bold;vertical-align:top;">form_label_separator</td><td style="vertical-align:top;">:</td><td><div>: </div></td></tr><tr><td style="font-weight:bold;vertical-align:top;">formstyle</td><td style="vertical-align:top;">:</td><td><div>table3cols</div></td></tr><tr><td style="font-weight:bold;vertical-align:top;">generic_patterns</td><td style="vertical-align:top;">:</td><td><div><table><tr><td><div>*</div></td></tr></table></div></td></tr><tr><td style="font-weight:bold;vertical-align:top;">headers</td><td style="vertical-align:top;">:</td><td><div><table><tr><td style="font-weight:bold;vertical-align:top;">X-Powered-By</td><td style="vertical-align:top;">:</td><td><div>web2py</div></td></tr></table></div></td></tr><tr><td style="font-weight:bold;vertical-align:top;">logo</td><td style="vertical-align:top;">:</td><td><div><b class="brand">Garden</b></div></td></tr><tr><td style="font-weight:bold;vertical-align:top;">menu</td><td style="vertical-align:top;">:</td><td><div><table></table></div></td></tr><tr><td style="font-weight:bold;vertical-align:top;">meta</td><td style="vertical-align:top;">:</td><td><div><table></table></div></td></tr><tr><td style="font-weight:bold;vertical-align:top;">models_to_run</td><td style="vertical-align:top;">:</td><td><div><table><tr><td><div>^\\w+\\.py$</div></td></tr><tr><td><div>^appadmin/\\w+\\.py$</div></td></tr><tr><td><div>^appadmin/hooks/\\w+\\.py$</div></td></tr></table></div></td></tr><tr><td style="font-weight:bold;vertical-align:top;">postprocessing</td><td style="vertical-align:top;">:</td><td><div><table></table></div></td></tr><tr><td style="font-weight:bold;vertical-align:top;">session_client</td><td style="vertical-align:top;">:</td><td><div>127.0.0.1</div></td></tr><tr><td style="font-weight:bold;vertical-align:top;">session_cookie_compression_level</td><td style="vertical-align:top;">:</td><td><div>None</div></td></tr><tr><td style="font-weight:bold;vertical-align:top;">session_cookie_expires</td><td style="vertical-align:top;">:</td><td><div>None</div></td></tr><tr><td style="font-weight:bold;vertical-align:top;">session_cookie_key</td><td style="vertical-align:top;">:</td><td><div>None</div></td></tr><tr><td style="font-weight:bold;vertical-align:top;">session_data_name</td><td style="vertical-align:top;">:</td><td><div>session_data_garden_2_may</div></td></tr><tr><td style="font-weight:bold;vertical-align:top;">session_file</td><td style="vertical-align:top;">:</td><td><div>&lt;open file &#x27;/home/vedant/Desktop/web2py/applications/garden_2_may/sessions/1e1/1c2/127.0.0.1-6aed69a5-262a-45af-bba2-cd86a426e079&#x27;, mode &#x27;rb+&#x27; at 0x7fb2dda639c0&gt;</div></td></tr><tr><td style="font-weight:bold;vertical-align:top;">session_filename</td><td style="vertical-align:top;">:</td><td><div>/home/vedant/Desktop/web2py/applications/garden_2_may/sessions/127.0.0.1-6aed69a5-262a-45af-bba2-cd86a426e079</div></td></tr><tr><td style="font-weight:bold;vertical-align:top;">session_hash</td><td style="vertical-align:top;">:</td><td><div>2a12cff6a6a9616753e7ca59a35e46a8</div></td></tr><tr><td style="font-weight:bold;vertical-align:top;">session_id</td><td style="vertical-align:top;">:</td><td><div>127.0.0.1-6aed69a5-262a-45af-bba2-cd86a426e079</div></td></tr><tr><td style="font-weight:bold;vertical-align:top;">session_id_name</td><td style="vertical-align:top;">:</td><td><div>session_id_garden_2_may</div></td></tr><tr><td style="font-weight:bold;vertical-align:top;">session_locked</td><td style="vertical-align:top;">:</td><td><div>True</div></td></tr><tr><td style="font-weight:bold;vertical-align:top;">session_masterapp</td><td style="vertical-align:top;">:</td><td><div>garden_2_may</div></td></tr><tr><td style="font-weight:bold;vertical-align:top;">session_new</td><td style="vertical-align:top;">:</td><td><div>False</div></td></tr><tr><td style="font-weight:bold;vertical-align:top;">session_storage_type</td><td style="vertical-align:top;">:</td><td><div>file</div></td></tr><tr><td style="font-weight:bold;vertical-align:top;">status</td><td style="vertical-align:top;">:</td><td><div>200</div></td></tr><tr><td style="font-weight:bold;vertical-align:top;">view</td><td style="vertical-align:top;">:</td><td><div>appadmin/hooks.html</div></td></tr></table></div>'
tRp252
sS'locals'
p253
(dp254
S'a'
S"('CREATE TABLE order(\\n    id INTEGER PRIMARY KEY A...DE,\\n    quantity CHAR(512),\\n    time TIMESTAMP\\n);',)"
p255
sS'self'
p256
S'<gluon.dal.adapters.sqlite.SQLiteAdapter object>'
p257
sS'b'
g21
sS'command'
p258
S"'CREATE TABLE order(\\n    id INTEGER PRIMARY KEY A...DE,\\n    quantity CHAR(512),\\n    time TIMESTAMP\\n);'"
p259
sS't0'
p260
S'1430604945.083532'
p261
sssS'traceback'
p262
S'Traceback (most recent call last):\n  File "/home/vedant/Desktop/web2py/gluon/restricted.py", line 224, in restricted\n    exec ccode in environment\n  File "/home/vedant/Desktop/web2py/applications/garden_2_may/models/restaurant.py", line 40, in <module>\n    Field(\'time\',\'datetime\',default=request.now))\n  File "/home/vedant/Desktop/web2py/gluon/dal/base.py", line 787, in define_table\n    table = self.lazy_define_table(tablename,*fields,**args)\n  File "/home/vedant/Desktop/web2py/gluon/dal/base.py", line 824, in lazy_define_table\n    polymodel=polymodel)\n  File "/home/vedant/Desktop/web2py/gluon/dal/adapters/base.py", line 459, in create_table\n    self.create_sequence_and_triggers(query,table)\n  File "/home/vedant/Desktop/web2py/gluon/dal/adapters/base.py", line 1300, in create_sequence_and_triggers\n    self.execute(query)\n  File "/home/vedant/Desktop/web2py/gluon/dal/adapters/base.py", line 1319, in execute\n    return self.log_execute(*a, **b)\n  File "/home/vedant/Desktop/web2py/gluon/dal/adapters/base.py", line 1313, in log_execute\n    ret = self.cursor.execute(command, *a[1:], **b)\nOperationalError: near "order": syntax error\n'
p263
s.