(dp1
S'output'
p2
S"<type 'exceptions.NameError'> name 'Row' is not defined"
p3
sS'layer'
p4
S'/home/vedant/Desktop/web2py/applications/garden_2_may/controllers/order.py'
p5
sS'code'
p6
S"# -*- coding: utf-8 -*-\nif not session.gardenvariables:\n    session.gardenvariables=Row()\n\nif resauth.user:\n    try :\n        resauth.user.name\n        session.flash='Please logout of \\'Restaurant\\' to continue'\n        redirect(URL('restaurant','index'))\n    except AttributeError:\n        pass\n\ndef index():\n    redirect(URL('homepage'))\n\ndef homepage():\n    searchform=SQLFORM.factory(Field('name','reference city',requires=IS_IN_DB(db,db.city,label='%(name)s',error_message='Please select your city')),submit_button='Go!!!',labels=dict(name='Select your city'))\n    if searchform.process().accepted:\n        redirect(URL('searchfood',args=[searchform.vars.name]))\n    elif searchform.errors:\n        response.flash='Select your city'\n    return dict(searchform=searchform)\n\ndef searchfood():\n    return dict()\n\ndef user():\n    form=userauth()\n    return dict(form=form)\n\nresponse._vars=response._caller(searchfood)\n"
p7
sS'snapshot'
p8
(dp9
S'exception'
p10
(dp11
S'__hash__'
p12
S"<method-wrapper '__hash__' of exceptions.NameError object>"
p13
sS'__setattr__'
p14
S"<method-wrapper '__setattr__' of exceptions.NameError object>"
p15
sS'__reduce_ex__'
p16
S'<built-in method __reduce_ex__ of exceptions.NameError object>'
p17
sS'__getslice__'
p18
S"<method-wrapper '__getslice__' of exceptions.NameError object>"
p19
sS'__getitem__'
p20
S"<method-wrapper '__getitem__' of exceptions.NameError object>"
p21
sS'__setstate__'
p22
S'<built-in method __setstate__ of exceptions.NameError object>'
p23
sS'args'
p24
S'("name \'Row\' is not defined",)'
p25
sS'__reduce__'
p26
S'<built-in method __reduce__ of exceptions.NameError object>'
p27
sS'__str__'
p28
S"<method-wrapper '__str__' of exceptions.NameError object>"
p29
sS'__format__'
p30
S'<built-in method __format__ of exceptions.NameError object>'
p31
sS'__getattribute__'
p32
S"<method-wrapper '__getattribute__' of exceptions.NameError object>"
p33
sS'__class__'
p34
S"<type 'exceptions.NameError'>"
p35
sS'__unicode__'
p36
S'<built-in method __unicode__ of exceptions.NameError object>'
p37
sS'__delattr__'
p38
S"<method-wrapper '__delattr__' of exceptions.NameError object>"
p39
sS'__subclasshook__'
p40
S'<built-in method __subclasshook__ of type object>'
p41
sS'__repr__'
p42
S"<method-wrapper '__repr__' of exceptions.NameError object>"
p43
sS'__dict__'
p44
S'{}'
p45
sS'__sizeof__'
p46
S'<built-in method __sizeof__ of exceptions.NameError object>'
p47
sS'__doc__'
p48
S"'Name not found globally.'"
p49
sS'__init__'
p50
S"<method-wrapper '__init__' of exceptions.NameError object>"
p51
sS'__new__'
p52
S'<built-in method __new__ of type object>'
p53
ssS'evalue'
p54
S"name 'Row' is not defined"
p55
sS'request'
p56
cgluon.html
XML_unpickle
p57
(S's2[\x00\x00<div><table><tr><td style="font-weight:bold;vertical-align:top;">ajax</td><td style="vertical-align:top;">:</td><td><div>False</div></td></tr><tr><td style="font-weight:bold;vertical-align:top;">application</td><td style="vertical-align:top;">:</td><td><div>garden_2_may</div></td></tr><tr><td style="font-weight:bold;vertical-align:top;">args</td><td style="vertical-align:top;">:</td><td><div><table><tr><td><div>1</div></td></tr></table></div></td></tr><tr><td style="font-weight:bold;vertical-align:top;">cid</td><td style="vertical-align:top;">:</td><td><div>None</div></td></tr><tr><td style="font-weight:bold;vertical-align:top;">client</td><td style="vertical-align:top;">:</td><td><div>127.0.0.1</div></td></tr><tr><td style="font-weight:bold;vertical-align:top;">controller</td><td style="vertical-align:top;">:</td><td><div>order</div></td></tr><tr><td style="font-weight:bold;vertical-align:top;">cookies</td><td style="vertical-align:top;">:</td><td><div><table><tr><td style="font-weight:bold;vertical-align:top;">session_id_admin</td><td style="vertical-align:top;">:</td><td><div>127.0.0.1-49dfc4c7-8f4d-4ac7-bb2a-6617074ca27d<table><tr><td style="font-weight:bold;vertical-align:top;">comment</td><td style="vertical-align:top;">:</td><td><div></div></td></tr><tr><td style="font-weight:bold;vertical-align:top;">domain</td><td style="vertical-align:top;">:</td><td><div></div></td></tr><tr><td style="font-weight:bold;vertical-align:top;">expires</td><td style="vertical-align:top;">:</td><td><div></div></td></tr><tr><td style="font-weight:bold;vertical-align:top;">httponly</td><td style="vertical-align:top;">:</td><td><div></div></td></tr><tr><td style="font-weight:bold;vertical-align:top;">max-age</td><td style="vertical-align:top;">:</td><td><div></div></td></tr><tr><td style="font-weight:bold;vertical-align:top;">path</td><td style="vertical-align:top;">:</td><td><div></div></td></tr><tr><td style="font-weight:bold;vertical-align:top;">secure</td><td style="vertical-align:top;">:</td><td><div></div></td></tr><tr><td style="font-weight:bold;vertical-align:top;">version</td><td style="vertical-align:top;">:</td><td><div></div></td></tr></table></div></td></tr><tr><td style="font-weight:bold;vertical-align:top;">session_id_garden_2_may</td><td style="vertical-align:top;">:</td><td><div>127.0.0.1-9d5e6c8a-ce94-43ab-b767-cdc11239314e<table><tr><td style="font-weight:bold;vertical-align:top;">comment</td><td style="vertical-align:top;">:</td><td><div></div></td></tr><tr><td style="font-weight:bold;vertical-align:top;">domain</td><td style="vertical-align:top;">:</td><td><div></div></td></tr><tr><td style="font-weight:bold;vertical-align:top;">expires</td><td style="vertical-align:top;">:</td><td><div></div></td></tr><tr><td style="font-weight:bold;vertical-align:top;">httponly</td><td style="vertical-align:top;">:</td><td><div></div></td></tr><tr><td style="font-weight:bold;vertical-align:top;">max-age</td><td style="vertical-align:top;">:</td><td><div></div></td></tr><tr><td style="font-weight:bold;vertical-align:top;">path</td><td style="vertical-align:top;">:</td><td><div></div></td></tr><tr><td style="font-weight:bold;vertical-align:top;">secure</td><td style="vertical-align:top;">:</td><td><div></div></td></tr><tr><td style="font-weight:bold;vertical-align:top;">version</td><td style="vertical-align:top;">:</td><td><div></div></td></tr></table></div></td></tr><tr><td style="font-weight:bold;vertical-align:top;">session_id_welcome</td><td style="vertical-align:top;">:</td><td><div>127.0.0.1-bcf96040-26e4-475d-acab-ad6e28ba2c28<table><tr><td style="font-weight:bold;vertical-align:top;">comment</td><td style="vertical-align:top;">:</td><td><div></div></td></tr><tr><td style="font-weight:bold;vertical-align:top;">domain</td><td style="vertical-align:top;">:</td><td><div></div></td></tr><tr><td style="font-weight:bold;vertical-align:top;">expires</td><td style="vertical-align:top;">:</td><td><div></div></td></tr><tr><td style="font-weight:bold;vertical-align:top;">httponly</td><td style="vertical-align:top;">:</td><td><div></div></td></tr><tr><td style="font-weight:bold;vertical-align:top;">max-age</td><td style="vertical-align:top;">:</td><td><div></div></td></tr><tr><td style="font-weight:bold;vertical-align:top;">path</td><td style="vertical-align:top;">:</td><td><div></div></td></tr><tr><td style="font-weight:bold;vertical-align:top;">secure</td><td style="vertical-align:top;">:</td><td><div></div></td></tr><tr><td style="font-weight:bold;vertical-align:top;">version</td><td style="vertical-align:top;">:</td><td><div></div></td></tr></table></div></td></tr></table></div></td></tr><tr><td style="font-weight:bold;vertical-align:top;">env</td><td style="vertical-align:top;">:</td><td><div><table><tr><td style="font-weight:bold;vertical-align:top;">HTTP_ACCEPT</td><td style="vertical-align:top;">:</td><td><div>text/html,application/xhtml+xml,application/xml;q=0.9,*/*;q=0.8</div></td></tr><tr><td style="font-weight:bold;vertical-align:top;">HTTP_ACCEPT_ENCODING</td><td style="vertical-align:top;">:</td><td><div>gzip, deflate</div></td></tr><tr><td style="font-weight:bold;vertical-align:top;">HTTP_ACCEPT_LANGUAGE</td><td style="vertical-align:top;">:</td><td><div>en-US,en;q=0.5</div></td></tr><tr><td style="font-weight:bold;vertical-align:top;">HTTP_CACHE_CONTROL</td><td style="vertical-align:top;">:</td><td><div>max-age=0</div></td></tr><tr><td style="font-weight:bold;vertical-align:top;">HTTP_CONNECTION</td><td style="vertical-align:top;">:</td><td><div>keep-alive</div></td></tr><tr><td style="font-weight:bold;vertical-align:top;">HTTP_COOKIE</td><td style="vertical-align:top;">:</td><td><div>session_id_welcome=127.0.0.1-bcf96040-26e4-475d-acab-ad6e28ba2c28; session_id_garden_2_may=127.0.0.1-9d5e6c8a-ce94-43ab-b767-cdc11239314e; session_id_admin=127.0.0.1-49dfc4c7-8f4d-4ac7-bb2a-6617074ca27d</div></td></tr><tr><td style="font-weight:bold;vertical-align:top;">HTTP_HOST</td><td style="vertical-align:top;">:</td><td><div>127.0.0.1:8000</div></td></tr><tr><td style="font-weight:bold;vertical-align:top;">HTTP_USER_AGENT</td><td style="vertical-align:top;">:</td><td><div>Mozilla/5.0 (X11; Ubuntu; Linux x86_64; rv:37.0) Gecko/20100101 Firefox/37.0</div></td></tr><tr><td style="font-weight:bold;vertical-align:top;">PATH_INFO</td><td style="vertical-align:top;">:</td><td><div>/garden_2_may/order/searchfood/1</div></td></tr><tr><td style="font-weight:bold;vertical-align:top;">QUERY_STRING</td><td style="vertical-align:top;">:</td><td><div></div></td></tr><tr><td style="font-weight:bold;vertical-align:top;">REMOTE_ADDR</td><td style="vertical-align:top;">:</td><td><div>127.0.0.1</div></td></tr><tr><td style="font-weight:bold;vertical-align:top;">REMOTE_PORT</td><td style="vertical-align:top;">:</td><td><div>35284</div></td></tr><tr><td style="font-weight:bold;vertical-align:top;">REQUEST_METHOD</td><td style="vertical-align:top;">:</td><td><div>GET</div></td></tr><tr><td style="font-weight:bold;vertical-align:top;">SCRIPT_NAME</td><td style="vertical-align:top;">:</td><td><div></div></td></tr><tr><td style="font-weight:bold;vertical-align:top;">SERVER_NAME</td><td style="vertical-align:top;">:</td><td><div>Gopi-Lenovo</div></td></tr><tr><td style="font-weight:bold;vertical-align:top;">SERVER_PORT</td><td style="vertical-align:top;">:</td><td><div>8000</div></td></tr><tr><td style="font-weight:bold;vertical-align:top;">SERVER_PROTOCOL</td><td style="vertical-align:top;">:</td><td><div>HTTP/1.1</div></td></tr><tr><td style="font-weight:bold;vertical-align:top;">SERVER_SOFTWARE</td><td style="vertical-align:top;">:</td><td><div>Rocket 1.2.6</div></td></tr><tr><td style="font-weight:bold;vertical-align:top;">app_folders</td><td style="vertical-align:top;">:</td><td><div>set([&#x27;/home/vedant/Desktop/web2py/applications/admin/&#x27;, &#x27;/home/vedant/Desktop/web2py/applications/welcome/&#x27;, &#x27;/home/vedant/Desktop/web2py/applications/garden_2_may/&#x27;])</div></td></tr><tr><td style="font-weight:bold;vertical-align:top;">applications_parent</td><td style="vertical-align:top;">:</td><td><div>/home/vedant/Desktop/web2py</div></td></tr><tr><td style="font-weight:bold;vertical-align:top;">cmd_args</td><td style="vertical-align:top;">:</td><td><div><table></table></div></td></tr><tr><td style="font-weight:bold;vertical-align:top;">cmd_options</td><td style="vertical-align:top;">:</td><td><div>&lt;Values at 0x7fcc47c79518: {&#x27;verbose&#x27;: False, &#x27;ip&#x27;: &#x27;127.0.0.1&#x27;, &#x27;debuglevel&#x27;: 30, &#x27;with_scheduler&#x27;: False, &#x27;ips&#x27;: [&#x27;127.0.1.1&#x27;], &#x27;shutdown_timeout&#x27;: 5, &#x27;taskbar&#x27;: False, &#x27;with_coverage&#x27;: False, &#x27;scheduler_groups&#x27;: None, &#x27;port&#x27;: 8000, &#x27;maxthreads&#x27;: None, &#x27;softcron&#x27;: False, &#x27;server_name&#x27;: &#x27;Gopi-Lenovo&#x27;, &#x27;bpython&#x27;: False, &#x27;nogui&#x27;: True, &#x27;pid_filename&#x27;: &#x27;httpserver.pid&#x27;, &#x27;extcron&#x27;: False, &#x27;runcron&#x27;: False, &#x27;run_system_tests&#x27;: False, &#x27;test&#x27;: None, &#x27;folder&#x27;: &#x27;/home/vedant/Desktop/web2py&#x27;, &#x27;config&#x27;: &#x27;&#x27;, &#x27;minthreads&#x27;: None, &#x27;shell&#x27;: None, &#x27;run&#x27;: &#x27;&#x27;, &#x27;log_filename&#x27;: &#x27;httpserver.log&#x27;, &#x27;profiler_dir&#x27;: None, &#x27;args&#x27;: [&#x27;&#x27;], &#x27;socket_timeout&#x27;: 5, &#x27;ssl_ca_certificate&#x27;: None, &#x27;scheduler&#x27;: None, &#x27;interfaces&#x27;: None, &#x27;ssl_private_key&#x27;: &#x27;&#x27;, &#x27;gae&#x27;: None, &#x27;password&#x27;: &#x27; &#x27;, &#x27;request_queue_size&#x27;: 5, &#x27;ssl_certificate&#x27;: &#x27;&#x27;, &#x27;cronjob&#x27;: False, &#x27;numthreads&#x27;: None, &#x27;quiet&#x27;: False, &#x27;import_models&#x27;: False, &#x27;timeout&#x27;: 10, &#x27;plain&#x27;: False, &#x27;nobanner&#x27;: False}&gt;</div></td></tr><tr><td style="font-weight:bold;vertical-align:top;">db_sessions</td><td style="vertical-align:top;">:</td><td><div>set([])</div></td></tr><tr><td style="font-weight:bold;vertical-align:top;">debugging</td><td style="vertical-align:top;">:</td><td><div>True</div></td></tr><tr><td style="font-weight:bold;vertical-align:top;">gluon_parent</td><td style="vertical-align:top;">:</td><td><div>/home/vedant/Desktop/web2py</div></td></tr><tr><td style="font-weight:bold;vertical-align:top;">http_accept</td><td style="vertical-align:top;">:</td><td><div>text/html,application/xhtml+xml,application/xml;q=0.9,*/*;q=0.8</div></td></tr><tr><td style="font-weight:bold;vertical-align:top;">http_accept_encoding</td><td style="vertical-align:top;">:</td><td><div>gzip, deflate</div></td></tr><tr><td style="font-weight:bold;vertical-align:top;">http_accept_language</td><td style="vertical-align:top;">:</td><td><div>en-US,en;q=0.5</div></td></tr><tr><td style="font-weight:bold;vertical-align:top;">http_cache_control</td><td style="vertical-align:top;">:</td><td><div>max-age=0</div></td></tr><tr><td style="font-weight:bold;vertical-align:top;">http_connection</td><td style="vertical-align:top;">:</td><td><div>keep-alive</div></td></tr><tr><td style="font-weight:bold;vertical-align:top;">http_cookie</td><td style="vertical-align:top;">:</td><td><div>session_id_welcome=127.0.0.1-bcf96040-26e4-475d-acab-ad6e28ba2c28; session_id_garden_2_may=127.0.0.1-9d5e6c8a-ce94-43ab-b767-cdc11239314e; session_id_admin=127.0.0.1-49dfc4c7-8f4d-4ac7-bb2a-6617074ca27d</div></td></tr><tr><td style="font-weight:bold;vertical-align:top;">http_host</td><td style="vertical-align:top;">:</td><td><div>127.0.0.1:8000</div></td></tr><tr><td style="font-weight:bold;vertical-align:top;">http_user_agent</td><td style="vertical-align:top;">:</td><td><div>Mozilla/5.0 (X11; Ubuntu; Linux x86_64; rv:37.0) Gecko/20100101 Firefox/37.0</div></td></tr><tr><td style="font-weight:bold;vertical-align:top;">is_jython</td><td style="vertical-align:top;">:</td><td><div>False</div></td></tr><tr><td style="font-weight:bold;vertical-align:top;">is_pypy</td><td style="vertical-align:top;">:</td><td><div>False</div></td></tr><tr><td style="font-weight:bold;vertical-align:top;">is_source</td><td style="vertical-align:top;">:</td><td><div>True</div></td></tr><tr><td style="font-weight:bold;vertical-align:top;">local_hosts</td><td style="vertical-align:top;">:</td><td><div><table><tr><td><div>Gopi-Lenovo</div></td></tr><tr><td><div>::1</div></td></tr><tr><td><div>127.0.1.1</div></td></tr><tr><td><div>::ffff:127.0.0.1</div></td></tr><tr><td><div>127.0.0.1</div></td></tr></table></div></td></tr><tr><td style="font-weight:bold;vertical-align:top;">path_info</td><td style="vertical-align:top;">:</td><td><div>/garden_2_may/order/searchfood/1</div></td></tr><tr><td style="font-weight:bold;vertical-align:top;">query_string</td><td style="vertical-align:top;">:</td><td><div></div></td></tr><tr><td style="font-weight:bold;vertical-align:top;">remote_addr</td><td style="vertical-align:top;">:</td><td><div>127.0.0.1</div></td></tr><tr><td style="font-weight:bold;vertical-align:top;">remote_port</td><td style="vertical-align:top;">:</td><td><div>35284</div></td></tr><tr><td style="font-weight:bold;vertical-align:top;">request_method</td><td style="vertical-align:top;">:</td><td><div>GET</div></td></tr><tr><td style="font-weight:bold;vertical-align:top;">request_uri</td><td style="vertical-align:top;">:</td><td><div>/garden_2_may/order/searchfood/1</div></td></tr><tr><td style="font-weight:bold;vertical-align:top;">script_name</td><td style="vertical-align:top;">:</td><td><div></div></td></tr><tr><td style="font-weight:bold;vertical-align:top;">server_name</td><td style="vertical-align:top;">:</td><td><div>Gopi-Lenovo</div></td></tr><tr><td style="font-weight:bold;vertical-align:top;">server_port</td><td style="vertical-align:top;">:</td><td><div>8000</div></td></tr><tr><td style="font-weight:bold;vertical-align:top;">server_protocol</td><td style="vertical-align:top;">:</td><td><div>HTTP/1.1</div></td></tr><tr><td style="font-weight:bold;vertical-align:top;">server_software</td><td style="vertical-align:top;">:</td><td><div>Rocket 1.2.6</div></td></tr><tr><td style="font-weight:bold;vertical-align:top;">web2py_path</td><td style="vertical-align:top;">:</td><td><div>/home/vedant/Desktop/web2py</div></td></tr><tr><td style="font-weight:bold;vertical-align:top;">web2py_version</td><td style="vertical-align:top;">:</td><td><div>2.9.12-stable+timestamp.2015.01.17.06.11.03</div></td></tr><tr><td style="font-weight:bold;vertical-align:top;">wsgi.errors</td><td style="vertical-align:top;">:</td><td><div>&lt;open file &#x27;&lt;stderr&gt;&#x27;, mode &#x27;w&#x27; at 0x7fcc4bba51e0&gt;</div></td></tr><tr><td style="font-weight:bold;vertical-align:top;">wsgi.file_wrapper</td><td style="vertical-align:top;">:</td><td><div>&lt;class wsgiref.util.FileWrapper at 0x7fcc47c98120&gt;</div></td></tr><tr><td style="font-weight:bold;vertical-align:top;">wsgi.input</td><td style="vertical-align:top;">:</td><td><div>&lt;socket._fileobject object at 0x7fcc2cf912d0&gt;</div></td></tr><tr><td style="font-weight:bold;vertical-align:top;">wsgi.multiprocess</td><td style="vertical-align:top;">:</td><td><div>False</div></td></tr><tr><td style="font-weight:bold;vertical-align:top;">wsgi.multithread</td><td style="vertical-align:top;">:</td><td><div>True</div></td></tr><tr><td style="font-weight:bold;vertical-align:top;">wsgi.run_once</td><td style="vertical-align:top;">:</td><td><div>False</div></td></tr><tr><td style="font-weight:bold;vertical-align:top;">wsgi.url_scheme</td><td style="vertical-align:top;">:</td><td><div>http</div></td></tr><tr><td style="font-weight:bold;vertical-align:top;">wsgi.version</td><td style="vertical-align:top;">:</td><td><div><table><tr><td><div>1</div></td></tr><tr><td><div>0</div></td></tr></table></div></td></tr><tr><td style="font-weight:bold;vertical-align:top;">wsgi_errors</td><td style="vertical-align:top;">:</td><td><div>&lt;open file &#x27;&lt;stderr&gt;&#x27;, mode &#x27;w&#x27; at 0x7fcc4bba51e0&gt;</div></td></tr><tr><td style="font-weight:bold;vertical-align:top;">wsgi_file_wrapper</td><td style="vertical-align:top;">:</td><td><div>&lt;class wsgiref.util.FileWrapper at 0x7fcc47c98120&gt;</div></td></tr><tr><td style="font-weight:bold;vertical-align:top;">wsgi_input</td><td style="vertical-align:top;">:</td><td><div>&lt;socket._fileobject object at 0x7fcc2cf912d0&gt;</div></td></tr><tr><td style="font-weight:bold;vertical-align:top;">wsgi_multiprocess</td><td style="vertical-align:top;">:</td><td><div>False</div></td></tr><tr><td style="font-weight:bold;vertical-align:top;">wsgi_multithread</td><td style="vertical-align:top;">:</td><td><div>True</div></td></tr><tr><td style="font-weight:bold;vertical-align:top;">wsgi_run_once</td><td style="vertical-align:top;">:</td><td><div>False</div></td></tr><tr><td style="font-weight:bold;vertical-align:top;">wsgi_url_scheme</td><td style="vertical-align:top;">:</td><td><div>http</div></td></tr><tr><td style="font-weight:bold;vertical-align:top;">wsgi_version</td><td style="vertical-align:top;">:</td><td><div><table><tr><td><div>1</div></td></tr><tr><td><div>0</div></td></tr></table></div></td></tr></table></div></td></tr><tr><td style="font-weight:bold;vertical-align:top;">extension</td><td style="vertical-align:top;">:</td><td><div>html</div></td></tr><tr><td style="font-weight:bold;vertical-align:top;">folder</td><td style="vertical-align:top;">:</td><td><div>/home/vedant/Desktop/web2py/applications/garden_2_may/</div></td></tr><tr><td style="font-weight:bold;vertical-align:top;">function</td><td style="vertical-align:top;">:</td><td><div>searchfood</div></td></tr><tr><td style="font-weight:bold;vertical-align:top;">global_settings</td><td style="vertical-align:top;">:</td><td><div><table><tr><td style="font-weight:bold;vertical-align:top;">app_folders</td><td style="vertical-align:top;">:</td><td><div>set([&#x27;/home/vedant/Desktop/web2py/applications/admin/&#x27;, &#x27;/home/vedant/Desktop/web2py/applications/welcome/&#x27;, &#x27;/home/vedant/Desktop/web2py/applications/garden_2_may/&#x27;])</div></td></tr><tr><td style="font-weight:bold;vertical-align:top;">applications_parent</td><td style="vertical-align:top;">:</td><td><div>/home/vedant/Desktop/web2py</div></td></tr><tr><td style="font-weight:bold;vertical-align:top;">cmd_args</td><td style="vertical-align:top;">:</td><td><div><table></table></div></td></tr><tr><td style="font-weight:bold;vertical-align:top;">cmd_options</td><td style="vertical-align:top;">:</td><td><div>&lt;Values at 0x7fcc47c79518: {&#x27;verbose&#x27;: False, &#x27;ip&#x27;: &#x27;127.0.0.1&#x27;, &#x27;debuglevel&#x27;: 30, &#x27;with_scheduler&#x27;: False, &#x27;ips&#x27;: [&#x27;127.0.1.1&#x27;], &#x27;shutdown_timeout&#x27;: 5, &#x27;taskbar&#x27;: False, &#x27;with_coverage&#x27;: False, &#x27;scheduler_groups&#x27;: None, &#x27;port&#x27;: 8000, &#x27;maxthreads&#x27;: None, &#x27;softcron&#x27;: False, &#x27;server_name&#x27;: &#x27;Gopi-Lenovo&#x27;, &#x27;bpython&#x27;: False, &#x27;nogui&#x27;: True, &#x27;pid_filename&#x27;: &#x27;httpserver.pid&#x27;, &#x27;extcron&#x27;: False, &#x27;runcron&#x27;: False, &#x27;run_system_tests&#x27;: False, &#x27;test&#x27;: None, &#x27;folder&#x27;: &#x27;/home/vedant/Desktop/web2py&#x27;, &#x27;config&#x27;: &#x27;&#x27;, &#x27;minthreads&#x27;: None, &#x27;shell&#x27;: None, &#x27;run&#x27;: &#x27;&#x27;, &#x27;log_filename&#x27;: &#x27;httpserver.log&#x27;, &#x27;profiler_dir&#x27;: None, &#x27;args&#x27;: [&#x27;&#x27;], &#x27;socket_timeout&#x27;: 5, &#x27;ssl_ca_certificate&#x27;: None, &#x27;scheduler&#x27;: None, &#x27;interfaces&#x27;: None, &#x27;ssl_private_key&#x27;: &#x27;&#x27;, &#x27;gae&#x27;: None, &#x27;password&#x27;: &#x27; &#x27;, &#x27;request_queue_size&#x27;: 5, &#x27;ssl_certificate&#x27;: &#x27;&#x27;, &#x27;cronjob&#x27;: False, &#x27;numthreads&#x27;: None, &#x27;quiet&#x27;: False, &#x27;import_models&#x27;: False, &#x27;timeout&#x27;: 10, &#x27;plain&#x27;: False, &#x27;nobanner&#x27;: False}&gt;</div></td></tr><tr><td style="font-weight:bold;vertical-align:top;">db_sessions</td><td style="vertical-align:top;">:</td><td><div>set([])</div></td></tr><tr><td style="font-weight:bold;vertical-align:top;">debugging</td><td style="vertical-align:top;">:</td><td><div>True</div></td></tr><tr><td style="font-weight:bold;vertical-align:top;">gluon_parent</td><td style="vertical-align:top;">:</td><td><div>/home/vedant/Desktop/web2py</div></td></tr><tr><td style="font-weight:bold;vertical-align:top;">is_jython</td><td style="vertical-align:top;">:</td><td><div>False</div></td></tr><tr><td style="font-weight:bold;vertical-align:top;">is_pypy</td><td style="vertical-align:top;">:</td><td><div>False</div></td></tr><tr><td style="font-weight:bold;vertical-align:top;">is_source</td><td style="vertical-align:top;">:</td><td><div>True</div></td></tr><tr><td style="font-weight:bold;vertical-align:top;">local_hosts</td><td style="vertical-align:top;">:</td><td><div><table><tr><td><div>Gopi-Lenovo</div></td></tr><tr><td><div>::1</div></td></tr><tr><td><div>127.0.1.1</div></td></tr><tr><td><div>::ffff:127.0.0.1</div></td></tr><tr><td><div>127.0.0.1</div></td></tr></table></div></td></tr><tr><td style="font-weight:bold;vertical-align:top;">web2py_version</td><td style="vertical-align:top;">:</td><td><div>2.9.12-stable+timestamp.2015.01.17.06.11.03</div></td></tr></table></div></td></tr><tr><td style="font-weight:bold;vertical-align:top;">is_https</td><td style="vertical-align:top;">:</td><td><div>False</div></td></tr><tr><td style="font-weight:bold;vertical-align:top;">is_local</td><td style="vertical-align:top;">:</td><td><div>True</div></td></tr><tr><td style="font-weight:bold;vertical-align:top;">is_restful</td><td style="vertical-align:top;">:</td><td><div>False</div></td></tr><tr><td style="font-weight:bold;vertical-align:top;">is_sheduler</td><td style="vertical-align:top;">:</td><td><div>None</div></td></tr><tr><td style="font-weight:bold;vertical-align:top;">is_shell</td><td style="vertical-align:top;">:</td><td><div>None</div></td></tr><tr><td style="font-weight:bold;vertical-align:top;">now</td><td style="vertical-align:top;">:</td><td><div>datetime.datetime(2015, 5, 3, 14, 20, 42, 99593)</div></td></tr><tr><td style="font-weight:bold;vertical-align:top;">raw_args</td><td style="vertical-align:top;">:</td><td><div>1</div></td></tr><tr><td style="font-weight:bold;vertical-align:top;">raw_extension</td><td style="vertical-align:top;">:</td><td><div>None</div></td></tr><tr><td style="font-weight:bold;vertical-align:top;">url</td><td style="vertical-align:top;">:</td><td><div>/garden_2_may/order/searchfood/1</div></td></tr><tr><td style="font-weight:bold;vertical-align:top;">utcnow</td><td style="vertical-align:top;">:</td><td><div>datetime.datetime(2015, 5, 3, 8, 50, 42, 99630)</div></td></tr><tr><td style="font-weight:bold;vertical-align:top;">uuid</td><td style="vertical-align:top;">:</td><td><div>garden_2_may/127.0.0.1.2015-05-03.14-20-42.1e5156b3-481c-4857-b36b-f49d3c9f8f7a</div></td></tr><tr><td style="font-weight:bold;vertical-align:top;">wsgi</td><td style="vertical-align:top;">:</td><td><div>&lt;gluon.main.LazyWSGI object at 0x7fcc4437b9d0&gt;</div></td></tr></table></div>'
tRp58
sS'frames'
p59
(lp60
(dp61
S'file'
p62
S'/home/vedant/Desktop/web2py/gluon/restricted.py'
p63
sS'dump'
p64
(dp65
S'environment'
p66
S"{'A': <class 'gluon.html.A'>, 'ANY_OF': <class 'gluon.validators.ANY_OF'>, 'ASSIGNJS': <function ASSIGNJS>, 'Auth': <class 'gluon.tools.Auth'>, 'B': <class 'gluon.html.B'>, 'BEAUTIFY': <class 'gluon.html.BEAUTIFY'>, 'BODY': <class 'gluon.html.BODY'>, 'BR': <class 'gluon.html.BR'>, 'BUTTON': <class 'gluon.html.BUTTON'>, 'CAT': <class 'gluon.html.CAT'>, ...}"
p67
sS'ccode'
p68
S'<code object <module> at 0x7fcc2c744e30, file "/...tions/garden_2_may/controllers/order.py", line 2>'
p69
ssS'lnum'
p70
I224
sS'lines'
p71
(dp72
I224
S'        exec ccode in environment'
p73
sI225
S'    except HTTP:'
p74
sI226
S'        raise'
p75
sI227
S'    except RestrictedError:'
p76
sI228
S'        # do not encapsulate (obfuscate) the original RestrictedError'
p77
sI219
S'    try:'
p78
sI220
S'        if isinstance(code, types.CodeType):'
p79
sI221
S'            ccode = code'
p80
sI222
S'        else:'
p81
sI223
S'            ccode = compile2(code, layer)'
p82
ssS'call'
p83
S"(code='# -*- coding: utf-8 -*-\\nif not session.gardenvar...rm)\\n\\nresponse._vars=response._caller(searchfood)\\n', environment={'A': <class 'gluon.html.A'>, 'ANY_OF': <class 'gluon.validators.ANY_OF'>, 'ASSIGNJS': <function ASSIGNJS>, 'Auth': <class 'gluon.tools.Auth'>, 'B': <class 'gluon.html.B'>, 'BEAUTIFY': <class 'gluon.html.BEAUTIFY'>, 'BODY': <class 'gluon.html.BODY'>, 'BR': <class 'gluon.html.BR'>, 'BUTTON': <class 'gluon.html.BUTTON'>, 'CAT': <class 'gluon.html.CAT'>, ...}, layer='/home/vedant/Desktop/web2py/applications/garden_2_may/controllers/order.py')"
p84
sS'func'
p85
S'restricted'
p86
sa(dp87
g62
S'/home/vedant/Desktop/web2py/applications/garden_2_may/controllers/order.py'
p88
sg64
(dp89
S'session.gardenvariables'
p90
S'None'
p91
sS'session'
p92
S"<Storage {'_user_agent': <Storage {'is_mobile': ...189ff', 'dbe2dbc6-280c-4cee-a6e8-79e51f0182e2']}>"
p93
sS'Row'
p94
S'undefined'
p95
ssg70
I3
sg71
(dp96
I2
S'if not session.gardenvariables:'
p97
sI3
S'    session.gardenvariables=Row()'
p98
sI4
S''
sI5
S'if resauth.user:'
p99
sI6
S'    try :'
p100
sI7
S'        resauth.user.name'
p101
sI8
S"        session.flash='Please logout of \\'Restaurant\\' to continue'"
p102
sI9
S"        redirect(URL('restaurant','index'))"
p103
sI10
S'    except AttributeError:'
p104
sI11
S'        pass'
p105
ssg83
S'()'
p106
sg85
S'<module>'
p107
sasS'pyver'
p108
S'Python 2.7.6: /usr/bin/python (prefix: /usr)'
p109
sS'session'
p110
g57
(S's\xf3\t\x00\x00<div><table><tr><td style="font-weight:bold;vertical-align:top;">auth</td><td style="vertical-align:top;">:</td><td><div><table><tr><td style="font-weight:bold;vertical-align:top;">expiration</td><td style="vertical-align:top;">:</td><td><div>3600</div></td></tr><tr><td style="font-weight:bold;vertical-align:top;">hmac_key</td><td style="vertical-align:top;">:</td><td><div>44442fc7-0276-4895-a078-f448853b90ea</div></td></tr><tr><td style="font-weight:bold;vertical-align:top;">last_visit</td><td style="vertical-align:top;">:</td><td><div>datetime.datetime(2015, 5, 3, 14, 20, 32, 794210)</div></td></tr><tr><td style="font-weight:bold;vertical-align:top;">remember_me</td><td style="vertical-align:top;">:</td><td><div>False</div></td></tr><tr><td style="font-weight:bold;vertical-align:top;">user</td><td style="vertical-align:top;">:</td><td><div><table><tr><td style="font-weight:bold;vertical-align:top;">email</td><td style="vertical-align:top;">:</td><td><div>tik@tok.com</div></td></tr><tr><td style="font-weight:bold;vertical-align:top;">first_name</td><td style="vertical-align:top;">:</td><td><div>dfdasf</div></td></tr><tr><td style="font-weight:bold;vertical-align:top;">id</td><td style="vertical-align:top;">:</td><td><div>1L</div></td></tr><tr><td style="font-weight:bold;vertical-align:top;">last_name</td><td style="vertical-align:top;">:</td><td><div>as</div></td></tr><tr><td style="font-weight:bold;vertical-align:top;">phone_number</td><td style="vertical-align:top;">:</td><td><div>1234567890</div></td></tr><tr><td style="font-weight:bold;vertical-align:top;">registration_id</td><td style="vertical-align:top;">:</td><td><div></div></td></tr><tr><td style="font-weight:bold;vertical-align:top;">registration_key</td><td style="vertical-align:top;">:</td><td><div></div></td></tr><tr><td style="font-weight:bold;vertical-align:top;">reset_password_key</td><td style="vertical-align:top;">:</td><td><div></div></td></tr><tr><td style="font-weight:bold;vertical-align:top;">username</td><td style="vertical-align:top;">:</td><td><div>zoro</div></td></tr></table></div></td></tr><tr><td style="font-weight:bold;vertical-align:top;">user_groups</td><td style="vertical-align:top;">:</td><td><div><table><tr><td style="font-weight:bold;vertical-align:top;">1</td><td style="vertical-align:top;">:</td><td><div>user_1</div></td></tr></table></div></td></tr></table></div></td></tr><tr><td style="font-weight:bold;vertical-align:top;">flash</td><td style="vertical-align:top;">:</td><td><div>None</div></td></tr></table></div>'
tRp111
sS'etype'
p112
S"<type 'exceptions.NameError'>"
p113
sS'date'
p114
S'Sun May  3 14:20:42 2015'
p115
sS'response'
p116
g57
(S's\xb8\x18\x00\x00<div><table><tr><td style="font-weight:bold;vertical-align:top;">body</td><td style="vertical-align:top;">:</td><td><div>&lt;cStringIO.StringO object at 0x7fcc2c477880&gt;</div></td></tr><tr><td style="font-weight:bold;vertical-align:top;">cookies</td><td style="vertical-align:top;">:</td><td><div><table><tr><td style="font-weight:bold;vertical-align:top;">session_id_garden_2_may</td><td style="vertical-align:top;">:</td><td><div>127.0.0.1-9d5e6c8a-ce94-43ab-b767-cdc11239314e<table><tr><td style="font-weight:bold;vertical-align:top;">comment</td><td style="vertical-align:top;">:</td><td><div></div></td></tr><tr><td style="font-weight:bold;vertical-align:top;">domain</td><td style="vertical-align:top;">:</td><td><div></div></td></tr><tr><td style="font-weight:bold;vertical-align:top;">expires</td><td style="vertical-align:top;">:</td><td><div></div></td></tr><tr><td style="font-weight:bold;vertical-align:top;">httponly</td><td style="vertical-align:top;">:</td><td><div></div></td></tr><tr><td style="font-weight:bold;vertical-align:top;">max-age</td><td style="vertical-align:top;">:</td><td><div></div></td></tr><tr><td style="font-weight:bold;vertical-align:top;">path</td><td style="vertical-align:top;">:</td><td><div>/</div></td></tr><tr><td style="font-weight:bold;vertical-align:top;">secure</td><td style="vertical-align:top;">:</td><td><div></div></td></tr><tr><td style="font-weight:bold;vertical-align:top;">version</td><td style="vertical-align:top;">:</td><td><div></div></td></tr></table></div></td></tr></table></div></td></tr><tr><td style="font-weight:bold;vertical-align:top;">delimiters</td><td style="vertical-align:top;">:</td><td><div><table><tr><td><div>{{</div></td></tr><tr><td><div>}}</div></td></tr></table></div></td></tr><tr><td style="font-weight:bold;vertical-align:top;">files</td><td style="vertical-align:top;">:</td><td><div><table></table></div></td></tr><tr><td style="font-weight:bold;vertical-align:top;">flash</td><td style="vertical-align:top;">:</td><td><div></div></td></tr><tr><td style="font-weight:bold;vertical-align:top;">form_label_separator</td><td style="vertical-align:top;">:</td><td><div>: </div></td></tr><tr><td style="font-weight:bold;vertical-align:top;">formstyle</td><td style="vertical-align:top;">:</td><td><div>table3cols</div></td></tr><tr><td style="font-weight:bold;vertical-align:top;">generic_patterns</td><td style="vertical-align:top;">:</td><td><div><table><tr><td><div>*</div></td></tr></table></div></td></tr><tr><td style="font-weight:bold;vertical-align:top;">headers</td><td style="vertical-align:top;">:</td><td><div><table><tr><td style="font-weight:bold;vertical-align:top;">X-Powered-By</td><td style="vertical-align:top;">:</td><td><div>web2py</div></td></tr></table></div></td></tr><tr><td style="font-weight:bold;vertical-align:top;">logo</td><td style="vertical-align:top;">:</td><td><div><b class="brand">Garden</b></div></td></tr><tr><td style="font-weight:bold;vertical-align:top;">menu</td><td style="vertical-align:top;">:</td><td><div><table></table></div></td></tr><tr><td style="font-weight:bold;vertical-align:top;">meta</td><td style="vertical-align:top;">:</td><td><div><table></table></div></td></tr><tr><td style="font-weight:bold;vertical-align:top;">models_to_run</td><td style="vertical-align:top;">:</td><td><div><table><tr><td><div>^\\w+\\.py$</div></td></tr><tr><td><div>^order/\\w+\\.py$</div></td></tr><tr><td><div>^order/searchfood/\\w+\\.py$</div></td></tr></table></div></td></tr><tr><td style="font-weight:bold;vertical-align:top;">postprocessing</td><td style="vertical-align:top;">:</td><td><div><table></table></div></td></tr><tr><td style="font-weight:bold;vertical-align:top;">session_client</td><td style="vertical-align:top;">:</td><td><div>127.0.0.1</div></td></tr><tr><td style="font-weight:bold;vertical-align:top;">session_cookie_compression_level</td><td style="vertical-align:top;">:</td><td><div>None</div></td></tr><tr><td style="font-weight:bold;vertical-align:top;">session_cookie_expires</td><td style="vertical-align:top;">:</td><td><div>None</div></td></tr><tr><td style="font-weight:bold;vertical-align:top;">session_cookie_key</td><td style="vertical-align:top;">:</td><td><div>None</div></td></tr><tr><td style="font-weight:bold;vertical-align:top;">session_data_name</td><td style="vertical-align:top;">:</td><td><div>session_data_garden_2_may</div></td></tr><tr><td style="font-weight:bold;vertical-align:top;">session_file</td><td style="vertical-align:top;">:</td><td><div>&lt;open file &#x27;/home/vedant/Desktop/web2py/applications/garden_2_may/sessions/08f/1c6/127.0.0.1-9d5e6c8a-ce94-43ab-b767-cdc11239314e&#x27;, mode &#x27;rb+&#x27; at 0x7fcc13b051e0&gt;</div></td></tr><tr><td style="font-weight:bold;vertical-align:top;">session_filename</td><td style="vertical-align:top;">:</td><td><div>/home/vedant/Desktop/web2py/applications/garden_2_may/sessions/127.0.0.1-9d5e6c8a-ce94-43ab-b767-cdc11239314e</div></td></tr><tr><td style="font-weight:bold;vertical-align:top;">session_hash</td><td style="vertical-align:top;">:</td><td><div>095db1e277f0bd03269ca7a5eb1f0054</div></td></tr><tr><td style="font-weight:bold;vertical-align:top;">session_id</td><td style="vertical-align:top;">:</td><td><div>127.0.0.1-9d5e6c8a-ce94-43ab-b767-cdc11239314e</div></td></tr><tr><td style="font-weight:bold;vertical-align:top;">session_id_name</td><td style="vertical-align:top;">:</td><td><div>session_id_garden_2_may</div></td></tr><tr><td style="font-weight:bold;vertical-align:top;">session_locked</td><td style="vertical-align:top;">:</td><td><div>True</div></td></tr><tr><td style="font-weight:bold;vertical-align:top;">session_masterapp</td><td style="vertical-align:top;">:</td><td><div>garden_2_may</div></td></tr><tr><td style="font-weight:bold;vertical-align:top;">session_new</td><td style="vertical-align:top;">:</td><td><div>False</div></td></tr><tr><td style="font-weight:bold;vertical-align:top;">session_storage_type</td><td style="vertical-align:top;">:</td><td><div>file</div></td></tr><tr><td style="font-weight:bold;vertical-align:top;">status</td><td style="vertical-align:top;">:</td><td><div>200</div></td></tr><tr><td style="font-weight:bold;vertical-align:top;">view</td><td style="vertical-align:top;">:</td><td><div>order/searchfood.html</div></td></tr></table></div>'
tRp117
sS'locals'
p118
(dp119
S'OBJECT'
p120
S"<class 'gluon.html.OBJECT'>"
p121
sS'SQLDB'
p122
S"<class 'gluon.dal.base.DAL'>"
p123
sg110
S"<Storage {'_user_agent': <Storage {'is_mobile': ...189ff', 'dbe2dbc6-280c-4cee-a6e8-79e51f0182e2']}>"
p124
sS'LINK'
p125
S"<class 'gluon.html.LINK'>"
p126
sS'BR'
p127
S"<class 'gluon.html.BR'>"
p128
sS'local_import'
p129
S'<function <lambda>>'
p130
sS'OPTGROUP'
p131
S"<class 'gluon.html.OPTGROUP'>"
p132
sS'__package__'
p133
S'None'
p134
sS'PRE'
p135
S"<class 'gluon.html.PRE'>"
p136
sS'IS_INT_IN_RANGE'
p137
S"<class 'gluon.validators.IS_INT_IN_RANGE'>"
p138
sS'IS_LOWER'
p139
S"<class 'gluon.validators.IS_LOWER'>"
p140
sS'IS_STRONG'
p141
S"<class 'gluon.validators.IS_STRONG'>"
p142
sS'cache'
p143
S'<gluon.cache.Cache object>'
p144
sS'IS_IN_DB'
p145
S"<class 'gluon.validators.IS_IN_DB'>"
p146
sS'TAG'
p147
S'<gluon.html.__TAG__ object>'
p148
sS'SQLField'
p149
S"<class 'gluon.dal.objects.Field'>"
p150
sS'BODY'
p151
S"<class 'gluon.html.BODY'>"
p152
sS'IS_DATE_IN_RANGE'
p153
S"<class 'gluon.validators.IS_DATE_IN_RANGE'>"
p154
sS'TH'
p155
S"<class 'gluon.html.TH'>"
p156
sS'URL'
p157
S'<function URL>'
p158
sS'__file__'
p159
S"'/home/vedant/Desktop/web2py/applications/garden_2_may/controllers/order.py'"
p160
sS'db'
p161
S'<DAL uri="sqlite://storage.sqlite">'
p162
sS'P'
S"<class 'gluon.html.P'>"
p163
sS'TFOOT'
p164
S"<class 'gluon.html.TFOOT'>"
p165
sS'XHTML'
p166
S"<class 'gluon.html.XHTML'>"
p167
sS'ON'
p168
S'True'
p169
sS'OL'
p170
S"<class 'gluon.html.OL'>"
p171
sS'TEXTAREA'
p172
S"<class 'gluon.html.TEXTAREA'>"
p173
sS'MENU'
p174
S"<class 'gluon.html.MENU'>"
p175
sS'LOAD'
p176
S'<function LOAD>'
p177
sS'CODE'
p178
S"<class 'gluon.html.CODE'>"
p179
sS'HTTP'
p180
S"<class 'gluon.http.HTTP'>"
p181
sS'HR'
p182
S"<class 'gluon.html.HR'>"
p183
sS'resauth'
p184
S'<gluon.tools.Auth object>'
p185
sS'HEAD'
p186
S"<class 'gluon.html.HEAD'>"
p187
sS'LABEL'
p188
S"<class 'gluon.html.LABEL'>"
p189
sS'CLEANUP'
p190
S"<class 'gluon.validators.CLEANUP'>"
p191
sS'userauth'
p192
S'<gluon.tools.Auth object>'
p193
sS'SELECT'
p194
S"<class 'gluon.html.SELECT'>"
p195
sS'CENTER'
p196
S"<class 'gluon.html.CENTER'>"
p197
sS'Auth'
p198
S"<class 'gluon.tools.Auth'>"
p199
sS'__builtins__'
p200
S"{'ArithmeticError': <type 'exceptions.ArithmeticError'>, 'AssertionError': <type 'exceptions.AssertionError'>, 'AttributeError': <type 'exceptions.AttributeError'>, 'BaseException': <type 'exceptions.BaseException'>, 'BufferError': <type 'exceptions.BufferError'>, 'BytesWarning': <type 'exceptions.BytesWarning'>, 'DeprecationWarning': <type 'exceptions.DeprecationWarning'>, 'EOFError': <type 'exceptions.EOFError'>, 'Ellipsis': Ellipsis, 'EnvironmentError': <type 'exceptions.EnvironmentError'>, ...}"
p201
sS'HTML'
p202
S"<class 'gluon.html.HTML'>"
p203
sS'SQLFORM'
p204
S"<class 'gluon.sqlhtml.SQLFORM'>"
p205
sS'EM'
p206
S"<class 'gluon.html.EM'>"
p207
sS'redirect'
p208
S'<function redirect>'
p209
sS'FIELDSET'
p210
S"<class 'gluon.html.FIELDSET'>"
p211
sS'Plate'
p212
S'<class __restricted__.Plate>'
p213
sS'IS_EQUAL_TO'
p214
S"<class 'gluon.validators.IS_EQUAL_TO'>"
p215
sS'IS_PHONE'
p216
S"<class '__restricted__.IS_PHONE'>"
p217
sS'embed64'
p218
S'<function embed64>'
p219
sS'Validator'
p220
S"<class 'gluon.validators.Validator'>"
p221
sS'IS_LIST_OF'
p222
S"<class 'gluon.validators.IS_LIST_OF'>"
p223
sS'__name__'
p224
S"'__restricted__'"
p225
sS'EMBED'
p226
S"<class 'gluon.html.EMBED'>"
p227
sS'FORM'
p228
S"<class 'gluon.html.FORM'>"
p229
sS'IS_DATETIME'
p230
S"<class 'gluon.validators.IS_DATETIME'>"
p231
sS'Item'
p232
S'<class __restricted__.Item>'
p233
sS'H2'
p234
S"<class 'gluon.html.H2'>"
p235
sS'H3'
p236
S"<class 'gluon.html.H3'>"
p237
sS'BUTTON'
p238
S"<class 'gluon.html.BUTTON'>"
p239
sS'H1'
p240
S"<class 'gluon.html.H1'>"
p241
sS'H6'
p242
S"<class 'gluon.html.H6'>"
p243
sS'H4'
p244
S"<class 'gluon.html.H4'>"
p245
sS'H5'
p246
S"<class 'gluon.html.H5'>"
p247
sS'UL'
p248
S"<class 'gluon.html.UL'>"
p249
sS'IS_UPPER'
p250
S"<class 'gluon.validators.IS_UPPER'>"
p251
sS'xmlescape'
p252
S'<function xmlescape>'
p253
sS'IS_TIME'
p254
S"<class 'gluon.validators.IS_TIME'>"
p255
sS'OPTION'
p256
S"<class 'gluon.html.OPTION'>"
p257
sS'TITLE'
p258
S"<class 'gluon.html.TITLE'>"
p259
sS'CRYPT'
p260
S"<class 'gluon.validators.CRYPT'>"
p261
sS'IS_EMPTY_OR'
p262
S"<class 'gluon.validators.IS_EMPTY_OR'>"
p263
sS'MARKMIN'
p264
S"<class 'gluon.html.MARKMIN'>"
p265
sS'INPUT'
p266
S"<class 'gluon.html.INPUT'>"
p267
sS'STRONG'
p268
S"<class 'gluon.html.STRONG'>"
p269
sS'COL'
p270
S"<class 'gluon.html.COL'>"
p271
sS'SCRIPT'
p272
S"<class 'gluon.html.SCRIPT'>"
p273
sS'TABLE'
p274
S"<class 'gluon.html.TABLE'>"
p275
sS'IS_IPV4'
p276
S"<class 'gluon.validators.IS_IPV4'>"
p277
sS'IS_LENGTH'
p278
S"<class 'gluon.validators.IS_LENGTH'>"
p279
sS'IS_IPV6'
p280
S"<class 'gluon.validators.IS_IPV6'>"
p281
sS'XML'
p282
S"<class 'gluon.html.XML'>"
p283
sS'B'
S"<class 'gluon.html.B'>"
p284
sS'IMG'
p285
S"<class 'gluon.html.IMG'>"
p286
sS'SQLTABLE'
p287
S"<class 'gluon.sqlhtml.SQLTABLE'>"
p288
sS'IS_MATCH'
p289
S"<class 'gluon.validators.IS_MATCH'>"
p290
sS'IS_ALPHANUMERIC'
p291
S"<class 'gluon.validators.IS_ALPHANUMERIC'>"
p292
sS'SPAN'
p293
S"<class 'gluon.html.SPAN'>"
p294
sS'IS_JSON'
p295
S"<class 'gluon.validators.IS_JSON'>"
p296
sS'IS_IPADDRESS'
p297
S"<class 'gluon.validators.IS_IPADDRESS'>"
p298
sS'IS_SLUG'
p299
S"<class 'gluon.validators.IS_SLUG'>"
p300
sS'BEAUTIFY'
p301
S"<class 'gluon.html.BEAUTIFY'>"
p302
sS'META'
p303
S"<class 'gluon.html.META'>"
p304
sS'ruser'
p305
S'<Table resauth_user (id,name,email,contact_numbe...stration_key,reset_password_key,registration_id)>'
p306
sS'IS_DATE'
p307
S"<class 'gluon.validators.IS_DATE'>"
p308
sS'IS_EMAIL'
p309
S"<class 'gluon.validators.IS_EMAIL'>"
p310
sS'IS_NOT_EMPTY'
p311
S"<class 'gluon.validators.IS_NOT_EMPTY'>"
p312
sS'IS_FLOAT_IN_RANGE'
p313
S"<class 'gluon.validators.IS_FLOAT_IN_RANGE'>"
p314
sS'TBODY'
p315
S"<class 'gluon.html.TBODY'>"
p316
sS'CAT'
p317
S"<class 'gluon.html.CAT'>"
p318
sS'Field'
p319
S"<class 'gluon.dal.objects.Field'>"
p320
sS'IS_LIST_OF_EMAILS'
p321
S"<class 'gluon.validators.IS_LIST_OF_EMAILS'>"
p322
sS'DIV'
p323
S"<class 'gluon.html.DIV'>"
p324
sS'LEGEND'
p325
S"<class 'gluon.html.LEGEND'>"
p326
sS'COLGROUP'
p327
S"<class 'gluon.html.COLGROUP'>"
p328
sS'DAL'
p329
S"<class 'gluon.dal.base.DAL'>"
p330
sS'ASSIGNJS'
p331
S'<function ASSIGNJS>'
p332
sS'ouser'
p333
S'<Table auth_user (id,first_name,last_name,userna...stration_key,reset_password_key,registration_id)>'
p334
sS'TR'
p335
S"<class 'gluon.html.TR'>"
p336
sS'LI'
p337
S"<class 'gluon.html.LI'>"
p338
sS'IFRAME'
p339
S"<class 'gluon.html.IFRAME'>"
p340
sS'TD'
p341
S"<class 'gluon.html.TD'>"
p342
sS'IS_URL'
p343
S"<class 'gluon.validators.IS_URL'>"
p344
sS'A'
S"<class 'gluon.html.A'>"
p345
sS'STYLE'
p346
S"<class 'gluon.html.STYLE'>"
p347
sS'IS_DATETIME_IN_RANGE'
p348
S"<class 'gluon.validators.IS_DATETIME_IN_RANGE'>"
p349
sS'IS_IMAGE'
p350
S"<class 'gluon.validators.IS_IMAGE'>"
p351
sS'I'
S"<class 'gluon.html.I'>"
p352
sS'IS_NOT_IN_DB'
p353
S"<class 'gluon.validators.IS_NOT_IN_DB'>"
p354
sg116
S"<Storage {'body': <cStringIO.StringO object at 0...x7fcc13b46aa0>, 'view': 'order/searchfood.html'}>"
p355
sS'THEAD'
p356
S"<class 'gluon.html.THEAD'>"
p357
sS'ANY_OF'
p358
S"<class 'gluon.validators.ANY_OF'>"
p359
sS'IS_NULL_OR'
p360
S"<class 'gluon.validators.IS_EMPTY_OR'>"
p361
sg56
S"<Storage {'_vars': None, 'function': 'searchfood...dant/Desktop/web2py/applications/garden_2_may/'}>"
p362
sS'IS_EXPR'
p363
S"<class 'gluon.validators.IS_EXPR'>"
p364
sS'IS_IN_SET'
p365
S"<class 'gluon.validators.IS_IN_SET'>"
p366
sS'resset'
p367
S"<Storage {'verify_email_onaccept': [], 'register...sername_next': '/garden_2_may/restaurant/index'}>"
p368
sS'IS_UPLOAD_FILENAME'
p369
S"<class 'gluon.validators.IS_UPLOAD_FILENAME'>"
p370
sS'IS_DECIMAL_IN_RANGE'
p371
S"<class 'gluon.validators.IS_DECIMAL_IN_RANGE'>"
p372
sS'TT'
p373
S"<class 'gluon.html.TT'>"
p374
sS'T'
S'<gluon.languages.translator object>'
p375
sssS'traceback'
p376
S'Traceback (most recent call last):\n  File "/home/vedant/Desktop/web2py/gluon/restricted.py", line 224, in restricted\n    exec ccode in environment\n  File "/home/vedant/Desktop/web2py/applications/garden_2_may/controllers/order.py", line 3, in <module>\n    session.gardenvariables=Row()\nNameError: name \'Row\' is not defined\n'
p377
s.