(dp1
S'output'
p2
S"<type 'exceptions.SyntaxError'> define_table argument is not a Field or Table: sdasdas"
p3
sS'layer'
p4
S'/home/vedant/Desktop/web2py/applications/garden_2_may/controllers/order.py'
p5
sS'code'
p6
S"# -*- coding: utf-8 -*-\nif resauth.user:\n    try :\n        resauth.user.name\n        session.flash='Please logout of \\'Restaurant\\' to continue'\n        redirect(URL('restaurant','index'))\n    except AttributeError:\n        pass\n\ndef index():\n    redirect(URL('homepage'))\n\ndef homepage():\n    searchform=SQLFORM.factory('sdasdas')\n    return dict(searchform=searchform)\n\ndef user():\n    form=userauth()\n    return dict(form=form)\n\nresponse._vars=response._caller(homepage)\n"
p7
sS'snapshot'
p8
(dp9
sS'traceback'
p10
S'Traceback (most recent call last):\n  File "/home/vedant/Desktop/web2py/gluon/restricted.py", line 224, in restricted\n    exec ccode in environment\n  File "/home/vedant/Desktop/web2py/applications/garden_2_may/controllers/order.py", line 21, in <module>\n  File "/home/vedant/Desktop/web2py/gluon/globals.py", line 393, in <lambda>\n    self._caller = lambda f: f()\n  File "/home/vedant/Desktop/web2py/applications/garden_2_may/controllers/order.py", line 14, in homepage\n    searchform=SQLFORM.factory(\'sdasdas\')\n  File "/home/vedant/Desktop/web2py/gluon/sqlhtml.py", line 1735, in factory\n    return SQLFORM(DAL(None).define_table(table_name, *fields),\n  File "/home/vedant/Desktop/web2py/gluon/dal/base.py", line 787, in define_table\n    table = self.lazy_define_table(tablename,*fields,**args)\n  File "/home/vedant/Desktop/web2py/gluon/dal/base.py", line 804, in lazy_define_table\n    table = table_class(self, tablename, *fields, **args)\n  File "/home/vedant/Desktop/web2py/gluon/dal/objects.py", line 327, in __init__\n    \'define_table argument is not a Field or Table: %s\' % field)\nSyntaxError: define_table argument is not a Field or Table: sdasdas\n'
p11
s.